;
; File generated by cc65 v 2.19 - Git 4dfbccf
;
	.fopt		compiler,"cc65 v 2.19 - Git 4dfbccf"
	.setcpu		"6502"
	.smart		on
	.autoimport	on
	.case		on
	.debuginfo	off
	.importzp	sp, sreg, regsave, regbank
	.importzp	tmp1, tmp2, tmp3, tmp4, ptr1, ptr2, ptr3, ptr4
	.macpack	longbranch
	.forceimport	__STARTUP__
	.import		_set_vram_buffer
	.import		_get_pad_new
	.import		_pal_fade_to
	.import		_pal_all
	.import		_pal_col
	.import		_pal_clear
	.import		_pal_bright
	.import		_ppu_wait_nmi
	.import		_ppu_off
	.import		_ppu_on_all
	.import		_oam_clear
	.import		_oam_meta_spr
	.import		_pad_poll
	.import		_vram_adr
	.import		_vram_unrle
	.export		_intro1
	.export		_intro2
	.export		_intro3
	.export		_intro4
	.export		_intro5
	.export		_intro6
	.export		_intro7
	.export		_intro8
	.export		_intro9
	.export		_title
	.export		_story_pal
	.export		_frisk_0_data
	.export		_frisk_1_data
	.export		_frisk_2_data
	.export		_frisk_3_data
	.export		_frisk_4_data
	.export		_frisk_5_data
	.export		_frisk_6_data
	.export		_frisk_7_data
	.export		_frisk_8_data
	.export		_frisk_9_data
	.export		_frisk_up
	.export		_frisk_left
	.export		_frisk_right
	.export		_frisk_down
	.export		_frisk_all
	.export		_umbrella_0_data
	.export		_frisk_pal
	.export		_bankLevel
	.export		_bankBuffer
	.export		_banked_call
	.export		_bank_push
	.export		_bank_pop
	.import		_set_prg_8000
	.import		_get_prg_8000
	.import		_set_chr_mode_0
	.import		_set_chr_mode_2
	.import		_set_chr_mode_3
	.import		_set_chr_mode_4
	.import		_set_chr_mode_5
	.import		_famistudio_music_play
	.import		_famistudio_music_stop
	.import		_famistudio_sfx_play
	.export		_temp0
	.export		_temp1
	.export		_pad_state_1
	.export		_pad_new_1
	.export		_frisk_x
	.export		_frisk_y
	.export		_frisk_face
	.export		_frisk_frame_delay
	.export		_frisk_frame
	.export		_wram_array
	.export		_pal_one
	.export		_get_pad_all
	.export		_set_pal_intro
	.export		_play_story_cut
	.export		_play_title
	.export		_set_frisk
	.export		_update_frisk
	.export		_set_bk_tileset
	.export		_main

.segment	"DATA"

_frisk_up:
	.addr	_frisk_7_data
	.addr	_frisk_8_data
	.addr	_frisk_7_data
	.addr	_frisk_9_data
_frisk_left:
	.addr	_frisk_3_data
	.addr	_frisk_4_data
	.addr	_frisk_3_data
	.addr	_frisk_4_data
_frisk_right:
	.addr	_frisk_5_data
	.addr	_frisk_6_data
	.addr	_frisk_5_data
	.addr	_frisk_6_data
_frisk_down:
	.addr	_frisk_0_data
	.addr	_frisk_1_data
	.addr	_frisk_0_data
	.addr	_frisk_2_data
_frisk_all:
	.addr	_frisk_up
	.addr	_frisk_down
	.addr	_frisk_left
	.addr	_frisk_right
_temp0:
	.dword	$00000000
_temp1:
	.dword	$00000000

.segment	"RODATA"

.segment	"BANK0"
_intro1:
	.byte	$01
	.byte	$80
	.byte	$01
	.byte	$42
	.byte	$81
	.byte	$82
	.byte	$01
	.byte	$17
	.byte	$BB
	.byte	$80
	.byte	$01
	.byte	$05
	.byte	$83
	.byte	$84
	.byte	$01
	.byte	$04
	.byte	$85
	.byte	$86
	.byte	$87
	.byte	$88
	.byte	$84
	.byte	$01
	.byte	$06
	.byte	$BC
	.byte	$BD
	.byte	$BE
	.byte	$84
	.byte	$01
	.byte	$04
	.byte	$BF
	.byte	$80
	.byte	$01
	.byte	$05
	.byte	$83
	.byte	$84
	.byte	$01
	.byte	$04
	.byte	$89
	.byte	$8A
	.byte	$8B
	.byte	$8C
	.byte	$8D
	.byte	$84
	.byte	$01
	.byte	$04
	.byte	$C0
	.byte	$C1
	.byte	$9C
	.byte	$C2
	.byte	$C3
	.byte	$84
	.byte	$01
	.byte	$03
	.byte	$BF
	.byte	$80
	.byte	$01
	.byte	$05
	.byte	$83
	.byte	$84
	.byte	$01
	.byte	$03
	.byte	$8E
	.byte	$84
	.byte	$01
	.byte	$03
	.byte	$8F
	.byte	$84
	.byte	$01
	.byte	$04
	.byte	$C4
	.byte	$9C
	.byte	$01
	.byte	$02
	.byte	$C5
	.byte	$84
	.byte	$01
	.byte	$03
	.byte	$BF
	.byte	$80
	.byte	$01
	.byte	$05
	.byte	$83
	.byte	$84
	.byte	$01
	.byte	$03
	.byte	$90
	.byte	$91
	.byte	$84
	.byte	$84
	.byte	$92
	.byte	$93
	.byte	$84
	.byte	$01
	.byte	$04
	.byte	$C6
	.byte	$C7
	.byte	$C8
	.byte	$C9
	.byte	$CA
	.byte	$CB
	.byte	$84
	.byte	$01
	.byte	$02
	.byte	$BF
	.byte	$80
	.byte	$01
	.byte	$05
	.byte	$83
	.byte	$84
	.byte	$01
	.byte	$03
	.byte	$94
	.byte	$95
	.byte	$96
	.byte	$97
	.byte	$98
	.byte	$99
	.byte	$84
	.byte	$01
	.byte	$04
	.byte	$CC
	.byte	$CD
	.byte	$CE
	.byte	$CF
	.byte	$D0
	.byte	$D1
	.byte	$84
	.byte	$01
	.byte	$02
	.byte	$BF
	.byte	$80
	.byte	$01
	.byte	$05
	.byte	$83
	.byte	$84
	.byte	$01
	.byte	$03
	.byte	$9A
	.byte	$9B
	.byte	$9C
	.byte	$01
	.byte	$02
	.byte	$9D
	.byte	$84
	.byte	$01
	.byte	$05
	.byte	$D2
	.byte	$D3
	.byte	$D4
	.byte	$D5
	.byte	$84
	.byte	$84
	.byte	$D6
	.byte	$84
	.byte	$BF
	.byte	$80
	.byte	$01
	.byte	$05
	.byte	$83
	.byte	$84
	.byte	$01
	.byte	$03
	.byte	$9E
	.byte	$9F
	.byte	$9C
	.byte	$01
	.byte	$02
	.byte	$A0
	.byte	$84
	.byte	$01
	.byte	$04
	.byte	$D7
	.byte	$9C
	.byte	$01
	.byte	$02
	.byte	$D8
	.byte	$84
	.byte	$D9
	.byte	$DA
	.byte	$84
	.byte	$BF
	.byte	$80
	.byte	$01
	.byte	$05
	.byte	$83
	.byte	$84
	.byte	$01
	.byte	$02
	.byte	$A1
	.byte	$A2
	.byte	$9C
	.byte	$01
	.byte	$03
	.byte	$A3
	.byte	$A4
	.byte	$84
	.byte	$01
	.byte	$03
	.byte	$DB
	.byte	$9C
	.byte	$01
	.byte	$02
	.byte	$DC
	.byte	$DD
	.byte	$DE
	.byte	$84
	.byte	$84
	.byte	$BF
	.byte	$80
	.byte	$01
	.byte	$05
	.byte	$83
	.byte	$84
	.byte	$01
	.byte	$02
	.byte	$A5
	.byte	$A6
	.byte	$9C
	.byte	$01
	.byte	$03
	.byte	$A7
	.byte	$A8
	.byte	$84
	.byte	$01
	.byte	$03
	.byte	$DF
	.byte	$9C
	.byte	$01
	.byte	$02
	.byte	$E0
	.byte	$E1
	.byte	$84
	.byte	$01
	.byte	$02
	.byte	$BF
	.byte	$80
	.byte	$01
	.byte	$05
	.byte	$83
	.byte	$84
	.byte	$01
	.byte	$02
	.byte	$A9
	.byte	$AA
	.byte	$9C
	.byte	$01
	.byte	$03
	.byte	$AB
	.byte	$AC
	.byte	$84
	.byte	$01
	.byte	$02
	.byte	$E2
	.byte	$E3
	.byte	$9C
	.byte	$9C
	.byte	$E4
	.byte	$E5
	.byte	$E6
	.byte	$84
	.byte	$01
	.byte	$02
	.byte	$BF
	.byte	$80
	.byte	$01
	.byte	$05
	.byte	$83
	.byte	$84
	.byte	$01
	.byte	$03
	.byte	$AD
	.byte	$AE
	.byte	$AF
	.byte	$B0
	.byte	$B1
	.byte	$B2
	.byte	$84
	.byte	$01
	.byte	$04
	.byte	$E7
	.byte	$E8
	.byte	$E9
	.byte	$EA
	.byte	$EB
	.byte	$84
	.byte	$01
	.byte	$03
	.byte	$BF
	.byte	$80
	.byte	$01
	.byte	$05
	.byte	$83
	.byte	$84
	.byte	$01
	.byte	$03
	.byte	$B3
	.byte	$B4
	.byte	$B5
	.byte	$B6
	.byte	$B7
	.byte	$B8
	.byte	$84
	.byte	$01
	.byte	$04
	.byte	$EC
	.byte	$ED
	.byte	$EE
	.byte	$EF
	.byte	$F0
	.byte	$84
	.byte	$01
	.byte	$03
	.byte	$BF
	.byte	$80
	.byte	$01
	.byte	$05
	.byte	$B9
	.byte	$BA
	.byte	$01
	.byte	$17
	.byte	$F1
	.byte	$80
	.byte	$01
	.byte	$65
	.byte	$0B
	.byte	$2E
	.byte	$2D
	.byte	$26
	.byte	$80
	.byte	$20
	.byte	$26
	.byte	$2E
	.byte	$41
	.byte	$80
	.byte	$33
	.byte	$36
	.byte	$2E
	.byte	$80
	.byte	$31
	.byte	$20
	.byte	$22
	.byte	$24
	.byte	$32
	.byte	$80
	.byte	$01
	.byte	$2C
	.byte	$31
	.byte	$34
	.byte	$2B
	.byte	$24
	.byte	$23
	.byte	$80
	.byte	$33
	.byte	$27
	.byte	$24
	.byte	$80
	.byte	$04
	.byte	$20
	.byte	$31
	.byte	$33
	.byte	$27
	.byte	$45
	.byte	$80
	.byte	$01
	.byte	$2F
	.byte	$07
	.byte	$14
	.byte	$0C
	.byte	$00
	.byte	$0D
	.byte	$12
	.byte	$80
	.byte	$20
	.byte	$2D
	.byte	$23
	.byte	$80
	.byte	$0C
	.byte	$0E
	.byte	$0D
	.byte	$12
	.byte	$13
	.byte	$04
	.byte	$11
	.byte	$12
	.byte	$43
	.byte	$80
	.byte	$01
	.byte	$C8
	.byte	$00
	.byte	$01
	.byte	$1F
	.byte	$40
	.byte	$50
	.byte	$01
	.byte	$03
	.byte	$10
	.byte	$00
	.byte	$00
	.byte	$44
	.byte	$55
	.byte	$01
	.byte	$03
	.byte	$50
	.byte	$00
	.byte	$01
	.byte	$10
	.byte	$00
	.byte	$01
	.byte	$00
_intro2:
	.byte	$02
	.byte	$FF
	.byte	$02
	.byte	$1D
	.byte	$EF
	.byte	$EF
	.byte	$FF
	.byte	$02
	.byte	$1D
	.byte	$EF
	.byte	$EF
	.byte	$FF
	.byte	$02
	.byte	$02
	.byte	$51
	.byte	$52
	.byte	$02
	.byte	$05
	.byte	$53
	.byte	$54
	.byte	$52
	.byte	$02
	.byte	$03
	.byte	$A5
	.byte	$A6
	.byte	$A7
	.byte	$52
	.byte	$02
	.byte	$08
	.byte	$A8
	.byte	$FF
	.byte	$EF
	.byte	$EF
	.byte	$FF
	.byte	$02
	.byte	$02
	.byte	$55
	.byte	$56
	.byte	$57
	.byte	$58
	.byte	$56
	.byte	$56
	.byte	$59
	.byte	$5A
	.byte	$56
	.byte	$5B
	.byte	$5C
	.byte	$56
	.byte	$56
	.byte	$A9
	.byte	$AA
	.byte	$AB
	.byte	$56
	.byte	$02
	.byte	$08
	.byte	$AC
	.byte	$FF
	.byte	$EF
	.byte	$EF
	.byte	$FF
	.byte	$02
	.byte	$02
	.byte	$5D
	.byte	$5E
	.byte	$5F
	.byte	$60
	.byte	$61
	.byte	$62
	.byte	$63
	.byte	$64
	.byte	$65
	.byte	$66
	.byte	$67
	.byte	$56
	.byte	$68
	.byte	$AD
	.byte	$AE
	.byte	$AF
	.byte	$56
	.byte	$02
	.byte	$08
	.byte	$AC
	.byte	$FF
	.byte	$EF
	.byte	$EF
	.byte	$FF
	.byte	$02
	.byte	$02
	.byte	$69
	.byte	$6A
	.byte	$6B
	.byte	$6C
	.byte	$6D
	.byte	$6E
	.byte	$6F
	.byte	$70
	.byte	$EF
	.byte	$EF
	.byte	$71
	.byte	$56
	.byte	$72
	.byte	$B0
	.byte	$B1
	.byte	$B2
	.byte	$56
	.byte	$02
	.byte	$03
	.byte	$B3
	.byte	$56
	.byte	$56
	.byte	$B4
	.byte	$56
	.byte	$AC
	.byte	$FF
	.byte	$EF
	.byte	$EF
	.byte	$FF
	.byte	$02
	.byte	$02
	.byte	$73
	.byte	$6C
	.byte	$02
	.byte	$02
	.byte	$74
	.byte	$75
	.byte	$76
	.byte	$77
	.byte	$EF
	.byte	$EF
	.byte	$78
	.byte	$79
	.byte	$7A
	.byte	$B5
	.byte	$56
	.byte	$02
	.byte	$05
	.byte	$B6
	.byte	$B7
	.byte	$B8
	.byte	$B9
	.byte	$56
	.byte	$AC
	.byte	$FF
	.byte	$EF
	.byte	$EF
	.byte	$FF
	.byte	$02
	.byte	$02
	.byte	$73
	.byte	$6C
	.byte	$02
	.byte	$02
	.byte	$7B
	.byte	$7C
	.byte	$EF
	.byte	$02
	.byte	$06
	.byte	$BA
	.byte	$BB
	.byte	$56
	.byte	$02
	.byte	$03
	.byte	$BC
	.byte	$56
	.byte	$BD
	.byte	$BE
	.byte	$BF
	.byte	$56
	.byte	$C0
	.byte	$FF
	.byte	$EF
	.byte	$EF
	.byte	$FF
	.byte	$02
	.byte	$02
	.byte	$73
	.byte	$6C
	.byte	$02
	.byte	$02
	.byte	$7D
	.byte	$EF
	.byte	$02
	.byte	$07
	.byte	$C1
	.byte	$56
	.byte	$02
	.byte	$04
	.byte	$C2
	.byte	$C3
	.byte	$C4
	.byte	$C5
	.byte	$C6
	.byte	$C7
	.byte	$C8
	.byte	$FF
	.byte	$FF
	.byte	$EF
	.byte	$FF
	.byte	$02
	.byte	$02
	.byte	$73
	.byte	$6C
	.byte	$02
	.byte	$02
	.byte	$81
	.byte	$EF
	.byte	$02
	.byte	$05
	.byte	$82
	.byte	$83
	.byte	$56
	.byte	$02
	.byte	$03
	.byte	$C9
	.byte	$CA
	.byte	$CB
	.byte	$CC
	.byte	$CD
	.byte	$CE
	.byte	$6C
	.byte	$6C
	.byte	$C8
	.byte	$FF
	.byte	$EF
	.byte	$EF
	.byte	$FF
	.byte	$02
	.byte	$02
	.byte	$73
	.byte	$6C
	.byte	$6C
	.byte	$84
	.byte	$EF
	.byte	$02
	.byte	$06
	.byte	$85
	.byte	$86
	.byte	$56
	.byte	$CF
	.byte	$D0
	.byte	$D1
	.byte	$D2
	.byte	$EF
	.byte	$D3
	.byte	$D4
	.byte	$D5
	.byte	$6C
	.byte	$02
	.byte	$02
	.byte	$C8
	.byte	$FF
	.byte	$EF
	.byte	$EF
	.byte	$FF
	.byte	$02
	.byte	$02
	.byte	$73
	.byte	$6C
	.byte	$87
	.byte	$88
	.byte	$EF
	.byte	$02
	.byte	$06
	.byte	$89
	.byte	$8A
	.byte	$56
	.byte	$56
	.byte	$D6
	.byte	$D7
	.byte	$D8
	.byte	$EF
	.byte	$EF
	.byte	$D9
	.byte	$6C
	.byte	$02
	.byte	$03
	.byte	$C8
	.byte	$EF
	.byte	$02
	.byte	$02
	.byte	$FF
	.byte	$02
	.byte	$02
	.byte	$73
	.byte	$6C
	.byte	$8B
	.byte	$8C
	.byte	$EF
	.byte	$02
	.byte	$07
	.byte	$8D
	.byte	$56
	.byte	$02
	.byte	$02
	.byte	$DA
	.byte	$DB
	.byte	$EF
	.byte	$02
	.byte	$02
	.byte	$DC
	.byte	$DD
	.byte	$6C
	.byte	$6C
	.byte	$C8
	.byte	$EF
	.byte	$FF
	.byte	$EF
	.byte	$FF
	.byte	$02
	.byte	$02
	.byte	$73
	.byte	$6C
	.byte	$6C
	.byte	$8E
	.byte	$8F
	.byte	$90
	.byte	$EF
	.byte	$02
	.byte	$05
	.byte	$92
	.byte	$56
	.byte	$02
	.byte	$03
	.byte	$DE
	.byte	$EF
	.byte	$E0
	.byte	$E1
	.byte	$E2
	.byte	$6C
	.byte	$02
	.byte	$02
	.byte	$C8
	.byte	$EF
	.byte	$FF
	.byte	$EF
	.byte	$FF
	.byte	$02
	.byte	$02
	.byte	$73
	.byte	$6C
	.byte	$02
	.byte	$02
	.byte	$93
	.byte	$94
	.byte	$95
	.byte	$96
	.byte	$97
	.byte	$98
	.byte	$99
	.byte	$9A
	.byte	$56
	.byte	$02
	.byte	$05
	.byte	$E3
	.byte	$E4
	.byte	$E5
	.byte	$E6
	.byte	$6C
	.byte	$02
	.byte	$02
	.byte	$C8
	.byte	$EF
	.byte	$FF
	.byte	$02
	.byte	$04
	.byte	$9B
	.byte	$9C
	.byte	$9D
	.byte	$9E
	.byte	$9F
	.byte	$A0
	.byte	$A1
	.byte	$02
	.byte	$02
	.byte	$A2
	.byte	$A3
	.byte	$A4
	.byte	$A1
	.byte	$02
	.byte	$04
	.byte	$E7
	.byte	$E8
	.byte	$A1
	.byte	$E9
	.byte	$EA
	.byte	$EB
	.byte	$EC
	.byte	$ED
	.byte	$EE
	.byte	$EF
	.byte	$FF
	.byte	$02
	.byte	$1E
	.byte	$EF
	.byte	$FF
	.byte	$EF
	.byte	$FF
	.byte	$02
	.byte	$1C
	.byte	$EF
	.byte	$02
	.byte	$02
	.byte	$FF
	.byte	$02
	.byte	$1D
	.byte	$EF
	.byte	$FF
	.byte	$02
	.byte	$03
	.byte	$0E
	.byte	$2D
	.byte	$24
	.byte	$FF
	.byte	$23
	.byte	$20
	.byte	$38
	.byte	$41
	.byte	$FF
	.byte	$36
	.byte	$20
	.byte	$31
	.byte	$FF
	.byte	$21
	.byte	$31
	.byte	$2E
	.byte	$2A
	.byte	$24
	.byte	$FF
	.byte	$02
	.byte	$07
	.byte	$EF
	.byte	$EF
	.byte	$FF
	.byte	$02
	.byte	$1D
	.byte	$EF
	.byte	$EF
	.byte	$FF
	.byte	$02
	.byte	$03
	.byte	$2E
	.byte	$34
	.byte	$33
	.byte	$FF
	.byte	$21
	.byte	$24
	.byte	$33
	.byte	$36
	.byte	$24
	.byte	$24
	.byte	$2D
	.byte	$FF
	.byte	$33
	.byte	$27
	.byte	$24
	.byte	$FF
	.byte	$33
	.byte	$36
	.byte	$2E
	.byte	$FF
	.byte	$02
	.byte	$06
	.byte	$EF
	.byte	$02
	.byte	$02
	.byte	$FF
	.byte	$02
	.byte	$1C
	.byte	$EF
	.byte	$02
	.byte	$02
	.byte	$FF
	.byte	$02
	.byte	$02
	.byte	$31
	.byte	$20
	.byte	$22
	.byte	$24
	.byte	$32
	.byte	$FF
	.byte	$02
	.byte	$14
	.byte	$EF
	.byte	$EF
	.byte	$FF
	.byte	$02
	.byte	$1D
	.byte	$EF
	.byte	$FF
	.byte	$02
	.byte	$1E
	.byte	$EF
	.byte	$EF
	.byte	$FF
	.byte	$02
	.byte	$1D
	.byte	$EF
	.byte	$EF
	.byte	$FF
	.byte	$02
	.byte	$1D
	.byte	$EF
	.byte	$02
	.byte	$02
	.byte	$FF
	.byte	$02
	.byte	$1C
	.byte	$EF
	.byte	$02
	.byte	$02
	.byte	$FF
	.byte	$02
	.byte	$1C
	.byte	$EF
	.byte	$EF
	.byte	$FF
	.byte	$00
	.byte	$02
	.byte	$1F
	.byte	$40
	.byte	$50
	.byte	$02
	.byte	$03
	.byte	$10
	.byte	$00
	.byte	$00
	.byte	$44
	.byte	$55
	.byte	$05
	.byte	$02
	.byte	$02
	.byte	$01
	.byte	$00
	.byte	$02
	.byte	$10
	.byte	$00
	.byte	$02
	.byte	$00
_intro3:
	.byte	$02
	.byte	$FF
	.byte	$02
	.byte	$42
	.byte	$41
	.byte	$42
	.byte	$43
	.byte	$44
	.byte	$45
	.byte	$02
	.byte	$0A
	.byte	$99
	.byte	$45
	.byte	$02
	.byte	$06
	.byte	$9A
	.byte	$42
	.byte	$9B
	.byte	$FF
	.byte	$02
	.byte	$05
	.byte	$46
	.byte	$47
	.byte	$47
	.byte	$48
	.byte	$49
	.byte	$4A
	.byte	$02
	.byte	$04
	.byte	$4B
	.byte	$4C
	.byte	$4D
	.byte	$9C
	.byte	$9D
	.byte	$9E
	.byte	$9F
	.byte	$A0
	.byte	$4A
	.byte	$02
	.byte	$02
	.byte	$A1
	.byte	$A2
	.byte	$A3
	.byte	$47
	.byte	$A4
	.byte	$FF
	.byte	$02
	.byte	$05
	.byte	$46
	.byte	$47
	.byte	$02
	.byte	$02
	.byte	$4E
	.byte	$4F
	.byte	$50
	.byte	$51
	.byte	$52
	.byte	$53
	.byte	$54
	.byte	$55
	.byte	$56
	.byte	$56
	.byte	$A5
	.byte	$FF
	.byte	$A6
	.byte	$A7
	.byte	$A8
	.byte	$A9
	.byte	$AA
	.byte	$AB
	.byte	$47
	.byte	$02
	.byte	$02
	.byte	$A4
	.byte	$FF
	.byte	$02
	.byte	$05
	.byte	$57
	.byte	$47
	.byte	$02
	.byte	$03
	.byte	$58
	.byte	$59
	.byte	$5A
	.byte	$5B
	.byte	$5C
	.byte	$FF
	.byte	$FF
	.byte	$5D
	.byte	$AC
	.byte	$AD
	.byte	$FF
	.byte	$AE
	.byte	$AF
	.byte	$56
	.byte	$56
	.byte	$B0
	.byte	$B1
	.byte	$B2
	.byte	$B3
	.byte	$47
	.byte	$A4
	.byte	$FF
	.byte	$02
	.byte	$05
	.byte	$5E
	.byte	$47
	.byte	$47
	.byte	$5F
	.byte	$60
	.byte	$61
	.byte	$56
	.byte	$02
	.byte	$02
	.byte	$62
	.byte	$63
	.byte	$64
	.byte	$65
	.byte	$B4
	.byte	$B5
	.byte	$B6
	.byte	$B7
	.byte	$56
	.byte	$B8
	.byte	$B9
	.byte	$56
	.byte	$56
	.byte	$61
	.byte	$BA
	.byte	$47
	.byte	$BB
	.byte	$FF
	.byte	$02
	.byte	$05
	.byte	$66
	.byte	$67
	.byte	$47
	.byte	$68
	.byte	$56
	.byte	$02
	.byte	$04
	.byte	$69
	.byte	$6A
	.byte	$6B
	.byte	$6C
	.byte	$BC
	.byte	$BD
	.byte	$BE
	.byte	$BF
	.byte	$C0
	.byte	$C1
	.byte	$56
	.byte	$02
	.byte	$04
	.byte	$C2
	.byte	$C3
	.byte	$FF
	.byte	$02
	.byte	$05
	.byte	$66
	.byte	$56
	.byte	$6D
	.byte	$6E
	.byte	$6F
	.byte	$70
	.byte	$71
	.byte	$72
	.byte	$73
	.byte	$74
	.byte	$47
	.byte	$02
	.byte	$02
	.byte	$C4
	.byte	$C5
	.byte	$C6
	.byte	$C7
	.byte	$C8
	.byte	$C9
	.byte	$CA
	.byte	$CB
	.byte	$CC
	.byte	$CD
	.byte	$CE
	.byte	$CF
	.byte	$D0
	.byte	$FF
	.byte	$02
	.byte	$05
	.byte	$75
	.byte	$76
	.byte	$76
	.byte	$77
	.byte	$78
	.byte	$47
	.byte	$02
	.byte	$08
	.byte	$D1
	.byte	$D2
	.byte	$D3
	.byte	$47
	.byte	$02
	.byte	$02
	.byte	$D4
	.byte	$D5
	.byte	$D6
	.byte	$D7
	.byte	$47
	.byte	$A4
	.byte	$FF
	.byte	$02
	.byte	$05
	.byte	$79
	.byte	$7A
	.byte	$7B
	.byte	$7C
	.byte	$7D
	.byte	$47
	.byte	$02
	.byte	$04
	.byte	$7E
	.byte	$7F
	.byte	$80
	.byte	$D8
	.byte	$47
	.byte	$02
	.byte	$05
	.byte	$D9
	.byte	$DA
	.byte	$DB
	.byte	$DC
	.byte	$DD
	.byte	$DE
	.byte	$FF
	.byte	$02
	.byte	$05
	.byte	$81
	.byte	$82
	.byte	$83
	.byte	$56
	.byte	$56
	.byte	$84
	.byte	$85
	.byte	$47
	.byte	$02
	.byte	$02
	.byte	$86
	.byte	$46
	.byte	$87
	.byte	$DF
	.byte	$E0
	.byte	$47
	.byte	$47
	.byte	$E1
	.byte	$E2
	.byte	$E3
	.byte	$E4
	.byte	$E5
	.byte	$E6
	.byte	$E7
	.byte	$E8
	.byte	$E9
	.byte	$FF
	.byte	$02
	.byte	$06
	.byte	$88
	.byte	$56
	.byte	$02
	.byte	$03
	.byte	$89
	.byte	$8A
	.byte	$8B
	.byte	$8C
	.byte	$8D
	.byte	$46
	.byte	$87
	.byte	$EA
	.byte	$EB
	.byte	$EC
	.byte	$ED
	.byte	$EE
	.byte	$EF
	.byte	$F0
	.byte	$56
	.byte	$02
	.byte	$02
	.byte	$F1
	.byte	$F2
	.byte	$FF
	.byte	$02
	.byte	$08
	.byte	$8E
	.byte	$56
	.byte	$02
	.byte	$06
	.byte	$FF
	.byte	$8F
	.byte	$90
	.byte	$F3
	.byte	$56
	.byte	$02
	.byte	$06
	.byte	$F4
	.byte	$F5
	.byte	$F6
	.byte	$FF
	.byte	$02
	.byte	$09
	.byte	$91
	.byte	$56
	.byte	$02
	.byte	$06
	.byte	$92
	.byte	$66
	.byte	$93
	.byte	$F7
	.byte	$56
	.byte	$02
	.byte	$05
	.byte	$F8
	.byte	$F9
	.byte	$FF
	.byte	$02
	.byte	$0B
	.byte	$94
	.byte	$95
	.byte	$02
	.byte	$06
	.byte	$96
	.byte	$97
	.byte	$98
	.byte	$FA
	.byte	$95
	.byte	$02
	.byte	$05
	.byte	$FB
	.byte	$FF
	.byte	$02
	.byte	$6A
	.byte	$00
	.byte	$25
	.byte	$33
	.byte	$24
	.byte	$31
	.byte	$FF
	.byte	$20
	.byte	$FF
	.byte	$2B
	.byte	$2E
	.byte	$2D
	.byte	$26
	.byte	$FF
	.byte	$21
	.byte	$20
	.byte	$33
	.byte	$33
	.byte	$2B
	.byte	$24
	.byte	$FF
	.byte	$02
	.byte	$2C
	.byte	$33
	.byte	$27
	.byte	$24
	.byte	$FF
	.byte	$27
	.byte	$34
	.byte	$2C
	.byte	$20
	.byte	$2D
	.byte	$32
	.byte	$FF
	.byte	$36
	.byte	$24
	.byte	$31
	.byte	$24
	.byte	$FF
	.byte	$02
	.byte	$30
	.byte	$35
	.byte	$28
	.byte	$22
	.byte	$33
	.byte	$2E
	.byte	$31
	.byte	$28
	.byte	$2E
	.byte	$34
	.byte	$32
	.byte	$40
	.byte	$FF
	.byte	$02
	.byte	$D1
	.byte	$00
	.byte	$02
	.byte	$1F
	.byte	$40
	.byte	$50
	.byte	$02
	.byte	$03
	.byte	$10
	.byte	$00
	.byte	$00
	.byte	$44
	.byte	$55
	.byte	$55
	.byte	$15
	.byte	$01
	.byte	$00
	.byte	$02
	.byte	$11
	.byte	$00
	.byte	$02
	.byte	$00
_intro4:
	.byte	$01
	.byte	$FF
	.byte	$01
	.byte	$42
	.byte	$41
	.byte	$42
	.byte	$43
	.byte	$44
	.byte	$45
	.byte	$01
	.byte	$0A
	.byte	$99
	.byte	$45
	.byte	$01
	.byte	$06
	.byte	$9A
	.byte	$42
	.byte	$9B
	.byte	$FF
	.byte	$01
	.byte	$05
	.byte	$46
	.byte	$47
	.byte	$47
	.byte	$48
	.byte	$49
	.byte	$4A
	.byte	$01
	.byte	$04
	.byte	$4B
	.byte	$4C
	.byte	$4D
	.byte	$9C
	.byte	$9D
	.byte	$9E
	.byte	$9F
	.byte	$A0
	.byte	$4A
	.byte	$01
	.byte	$02
	.byte	$A1
	.byte	$A2
	.byte	$A3
	.byte	$47
	.byte	$A4
	.byte	$FF
	.byte	$01
	.byte	$05
	.byte	$46
	.byte	$47
	.byte	$01
	.byte	$02
	.byte	$4E
	.byte	$4F
	.byte	$50
	.byte	$51
	.byte	$52
	.byte	$53
	.byte	$54
	.byte	$55
	.byte	$56
	.byte	$56
	.byte	$A5
	.byte	$FF
	.byte	$A6
	.byte	$A7
	.byte	$A8
	.byte	$A9
	.byte	$AA
	.byte	$AB
	.byte	$47
	.byte	$01
	.byte	$02
	.byte	$A4
	.byte	$FF
	.byte	$01
	.byte	$05
	.byte	$57
	.byte	$47
	.byte	$01
	.byte	$03
	.byte	$58
	.byte	$59
	.byte	$5A
	.byte	$5B
	.byte	$5C
	.byte	$FF
	.byte	$FF
	.byte	$5D
	.byte	$AC
	.byte	$AD
	.byte	$FF
	.byte	$AE
	.byte	$AF
	.byte	$56
	.byte	$56
	.byte	$B0
	.byte	$B1
	.byte	$B2
	.byte	$B3
	.byte	$47
	.byte	$A4
	.byte	$FF
	.byte	$01
	.byte	$05
	.byte	$5E
	.byte	$47
	.byte	$47
	.byte	$5F
	.byte	$60
	.byte	$61
	.byte	$56
	.byte	$01
	.byte	$02
	.byte	$62
	.byte	$63
	.byte	$64
	.byte	$65
	.byte	$B4
	.byte	$B5
	.byte	$B6
	.byte	$B7
	.byte	$56
	.byte	$B8
	.byte	$B9
	.byte	$56
	.byte	$56
	.byte	$61
	.byte	$BA
	.byte	$47
	.byte	$BB
	.byte	$FF
	.byte	$01
	.byte	$05
	.byte	$66
	.byte	$67
	.byte	$47
	.byte	$68
	.byte	$56
	.byte	$01
	.byte	$04
	.byte	$69
	.byte	$6A
	.byte	$6B
	.byte	$6C
	.byte	$BC
	.byte	$BD
	.byte	$BE
	.byte	$BF
	.byte	$C0
	.byte	$C1
	.byte	$56
	.byte	$01
	.byte	$04
	.byte	$C2
	.byte	$C3
	.byte	$FF
	.byte	$01
	.byte	$05
	.byte	$66
	.byte	$56
	.byte	$6D
	.byte	$6E
	.byte	$6F
	.byte	$70
	.byte	$71
	.byte	$72
	.byte	$73
	.byte	$74
	.byte	$47
	.byte	$01
	.byte	$02
	.byte	$C4
	.byte	$C5
	.byte	$C6
	.byte	$C7
	.byte	$C8
	.byte	$C9
	.byte	$CA
	.byte	$CB
	.byte	$CC
	.byte	$CD
	.byte	$CE
	.byte	$CF
	.byte	$D0
	.byte	$FF
	.byte	$01
	.byte	$05
	.byte	$75
	.byte	$76
	.byte	$76
	.byte	$77
	.byte	$78
	.byte	$47
	.byte	$01
	.byte	$08
	.byte	$D1
	.byte	$D2
	.byte	$D3
	.byte	$47
	.byte	$01
	.byte	$02
	.byte	$D4
	.byte	$D5
	.byte	$D6
	.byte	$D7
	.byte	$47
	.byte	$A4
	.byte	$FF
	.byte	$01
	.byte	$05
	.byte	$79
	.byte	$7A
	.byte	$7B
	.byte	$7C
	.byte	$7D
	.byte	$47
	.byte	$01
	.byte	$04
	.byte	$7E
	.byte	$7F
	.byte	$80
	.byte	$D8
	.byte	$47
	.byte	$01
	.byte	$05
	.byte	$D9
	.byte	$DA
	.byte	$DB
	.byte	$DC
	.byte	$DD
	.byte	$DE
	.byte	$FF
	.byte	$01
	.byte	$05
	.byte	$81
	.byte	$82
	.byte	$83
	.byte	$56
	.byte	$56
	.byte	$84
	.byte	$85
	.byte	$47
	.byte	$01
	.byte	$02
	.byte	$86
	.byte	$46
	.byte	$87
	.byte	$DF
	.byte	$E0
	.byte	$47
	.byte	$47
	.byte	$E1
	.byte	$E2
	.byte	$E3
	.byte	$E4
	.byte	$E5
	.byte	$E6
	.byte	$E7
	.byte	$E8
	.byte	$E9
	.byte	$FF
	.byte	$01
	.byte	$06
	.byte	$88
	.byte	$56
	.byte	$01
	.byte	$03
	.byte	$89
	.byte	$8A
	.byte	$8B
	.byte	$8C
	.byte	$8D
	.byte	$46
	.byte	$87
	.byte	$EA
	.byte	$EB
	.byte	$EC
	.byte	$ED
	.byte	$EE
	.byte	$EF
	.byte	$F0
	.byte	$56
	.byte	$01
	.byte	$02
	.byte	$F1
	.byte	$F2
	.byte	$FF
	.byte	$01
	.byte	$08
	.byte	$8E
	.byte	$56
	.byte	$01
	.byte	$06
	.byte	$FF
	.byte	$8F
	.byte	$90
	.byte	$F3
	.byte	$56
	.byte	$01
	.byte	$06
	.byte	$F4
	.byte	$F5
	.byte	$F6
	.byte	$FF
	.byte	$01
	.byte	$09
	.byte	$91
	.byte	$56
	.byte	$01
	.byte	$06
	.byte	$92
	.byte	$66
	.byte	$93
	.byte	$F7
	.byte	$56
	.byte	$01
	.byte	$05
	.byte	$F8
	.byte	$F9
	.byte	$FF
	.byte	$01
	.byte	$0B
	.byte	$94
	.byte	$95
	.byte	$01
	.byte	$06
	.byte	$96
	.byte	$97
	.byte	$98
	.byte	$FA
	.byte	$95
	.byte	$01
	.byte	$05
	.byte	$FB
	.byte	$FF
	.byte	$01
	.byte	$6A
	.byte	$13
	.byte	$27
	.byte	$24
	.byte	$38
	.byte	$FF
	.byte	$32
	.byte	$24
	.byte	$20
	.byte	$2B
	.byte	$24
	.byte	$23
	.byte	$FF
	.byte	$33
	.byte	$27
	.byte	$24
	.byte	$FF
	.byte	$2C
	.byte	$2E
	.byte	$2D
	.byte	$32
	.byte	$33
	.byte	$24
	.byte	$31
	.byte	$32
	.byte	$FF
	.byte	$01
	.byte	$27
	.byte	$34
	.byte	$2D
	.byte	$23
	.byte	$24
	.byte	$31
	.byte	$26
	.byte	$31
	.byte	$2E
	.byte	$34
	.byte	$2D
	.byte	$23
	.byte	$FF
	.byte	$36
	.byte	$28
	.byte	$33
	.byte	$27
	.byte	$FF
	.byte	$20
	.byte	$FF
	.byte	$2C
	.byte	$20
	.byte	$26
	.byte	$28
	.byte	$22
	.byte	$FF
	.byte	$01
	.byte	$27
	.byte	$32
	.byte	$2F
	.byte	$24
	.byte	$2B
	.byte	$2B
	.byte	$40
	.byte	$FF
	.byte	$01
	.byte	$D6
	.byte	$00
	.byte	$01
	.byte	$1F
	.byte	$40
	.byte	$50
	.byte	$01
	.byte	$05
	.byte	$00
	.byte	$44
	.byte	$55
	.byte	$15
	.byte	$05
	.byte	$01
	.byte	$03
	.byte	$00
	.byte	$01
	.byte	$0F
	.byte	$00
	.byte	$01
	.byte	$00
_intro5:
	.byte	$01
	.byte	$FF
	.byte	$01
	.byte	$FE
	.byte	$FF
	.byte	$01
	.byte	$FE
	.byte	$FF
	.byte	$01
	.byte	$64
	.byte	$0C
	.byte	$20
	.byte	$2D
	.byte	$38
	.byte	$FF
	.byte	$38
	.byte	$24
	.byte	$20
	.byte	$31
	.byte	$32
	.byte	$FF
	.byte	$2B
	.byte	$20
	.byte	$33
	.byte	$24
	.byte	$31
	.byte	$40
	.byte	$01
	.byte	$02
	.byte	$FF
	.byte	$01
	.byte	$FE
	.byte	$FF
	.byte	$01
	.byte	$4A
	.byte	$00
	.byte	$01
	.byte	$1F
	.byte	$40
	.byte	$50
	.byte	$01
	.byte	$03
	.byte	$10
	.byte	$00
	.byte	$01
	.byte	$18
	.byte	$00
	.byte	$01
	.byte	$00
_intro6:
	.byte	$02
	.byte	$70
	.byte	$02
	.byte	$42
	.byte	$71
	.byte	$72
	.byte	$02
	.byte	$17
	.byte	$BD
	.byte	$70
	.byte	$02
	.byte	$05
	.byte	$73
	.byte	$74
	.byte	$02
	.byte	$17
	.byte	$BE
	.byte	$70
	.byte	$02
	.byte	$05
	.byte	$73
	.byte	$74
	.byte	$02
	.byte	$17
	.byte	$BE
	.byte	$70
	.byte	$02
	.byte	$05
	.byte	$73
	.byte	$74
	.byte	$02
	.byte	$17
	.byte	$BE
	.byte	$70
	.byte	$02
	.byte	$05
	.byte	$73
	.byte	$74
	.byte	$02
	.byte	$0A
	.byte	$75
	.byte	$BF
	.byte	$C0
	.byte	$74
	.byte	$02
	.byte	$09
	.byte	$BE
	.byte	$70
	.byte	$02
	.byte	$05
	.byte	$73
	.byte	$74
	.byte	$02
	.byte	$08
	.byte	$76
	.byte	$77
	.byte	$78
	.byte	$C1
	.byte	$C2
	.byte	$C3
	.byte	$74
	.byte	$02
	.byte	$08
	.byte	$BE
	.byte	$70
	.byte	$02
	.byte	$05
	.byte	$73
	.byte	$74
	.byte	$02
	.byte	$07
	.byte	$79
	.byte	$7A
	.byte	$7B
	.byte	$7C
	.byte	$C4
	.byte	$C5
	.byte	$C6
	.byte	$C7
	.byte	$C8
	.byte	$74
	.byte	$02
	.byte	$06
	.byte	$BE
	.byte	$70
	.byte	$02
	.byte	$05
	.byte	$73
	.byte	$74
	.byte	$02
	.byte	$06
	.byte	$7D
	.byte	$7E
	.byte	$7F
	.byte	$80
	.byte	$81
	.byte	$C9
	.byte	$84
	.byte	$CA
	.byte	$84
	.byte	$CB
	.byte	$CC
	.byte	$74
	.byte	$02
	.byte	$05
	.byte	$BE
	.byte	$70
	.byte	$02
	.byte	$05
	.byte	$73
	.byte	$74
	.byte	$02
	.byte	$05
	.byte	$82
	.byte	$83
	.byte	$84
	.byte	$85
	.byte	$86
	.byte	$87
	.byte	$84
	.byte	$02
	.byte	$02
	.byte	$CD
	.byte	$CE
	.byte	$CF
	.byte	$D0
	.byte	$C0
	.byte	$74
	.byte	$02
	.byte	$02
	.byte	$D1
	.byte	$D2
	.byte	$70
	.byte	$02
	.byte	$05
	.byte	$88
	.byte	$89
	.byte	$8A
	.byte	$8B
	.byte	$8C
	.byte	$8D
	.byte	$8E
	.byte	$8F
	.byte	$84
	.byte	$84
	.byte	$90
	.byte	$91
	.byte	$92
	.byte	$D3
	.byte	$84
	.byte	$02
	.byte	$03
	.byte	$D4
	.byte	$D5
	.byte	$D6
	.byte	$D7
	.byte	$D8
	.byte	$D9
	.byte	$DA
	.byte	$70
	.byte	$02
	.byte	$06
	.byte	$93
	.byte	$94
	.byte	$95
	.byte	$96
	.byte	$97
	.byte	$98
	.byte	$99
	.byte	$9A
	.byte	$9B
	.byte	$9C
	.byte	$84
	.byte	$84
	.byte	$9D
	.byte	$DB
	.byte	$DC
	.byte	$DD
	.byte	$DE
	.byte	$DF
	.byte	$E0
	.byte	$E1
	.byte	$E2
	.byte	$E3
	.byte	$E4
	.byte	$70
	.byte	$02
	.byte	$08
	.byte	$9E
	.byte	$9F
	.byte	$A0
	.byte	$A1
	.byte	$A2
	.byte	$A3
	.byte	$A4
	.byte	$A5
	.byte	$A6
	.byte	$A7
	.byte	$84
	.byte	$84
	.byte	$A8
	.byte	$E5
	.byte	$E6
	.byte	$E7
	.byte	$E8
	.byte	$E9
	.byte	$70
	.byte	$02
	.byte	$02
	.byte	$EA
	.byte	$EB
	.byte	$EC
	.byte	$70
	.byte	$02
	.byte	$08
	.byte	$A9
	.byte	$AA
	.byte	$AB
	.byte	$AC
	.byte	$84
	.byte	$AD
	.byte	$AE
	.byte	$AF
	.byte	$B0
	.byte	$B1
	.byte	$B2
	.byte	$B3
	.byte	$70
	.byte	$02
	.byte	$02
	.byte	$ED
	.byte	$EE
	.byte	$70
	.byte	$02
	.byte	$03
	.byte	$EF
	.byte	$F0
	.byte	$70
	.byte	$02
	.byte	$09
	.byte	$B4
	.byte	$B5
	.byte	$B6
	.byte	$B7
	.byte	$B8
	.byte	$B9
	.byte	$BA
	.byte	$BB
	.byte	$BC
	.byte	$70
	.byte	$02
	.byte	$9B
	.byte	$0C
	.byte	$13
	.byte	$43
	.byte	$70
	.byte	$04
	.byte	$01
	.byte	$0E
	.byte	$13
	.byte	$13
	.byte	$70
	.byte	$02
	.byte	$39
	.byte	$49
	.byte	$47
	.byte	$48
	.byte	$17
	.byte	$70
	.byte	$02
	.byte	$EE
	.byte	$00
	.byte	$02
	.byte	$29
	.byte	$04
	.byte	$55
	.byte	$15
	.byte	$00
	.byte	$02
	.byte	$11
	.byte	$00
	.byte	$02
	.byte	$00
_intro7:
	.byte	$16
	.byte	$20
	.byte	$16
	.byte	$44
	.byte	$21
	.byte	$22
	.byte	$23
	.byte	$24
	.byte	$25
	.byte	$26
	.byte	$27
	.byte	$28
	.byte	$20
	.byte	$29
	.byte	$20
	.byte	$16
	.byte	$02
	.byte	$90
	.byte	$91
	.byte	$92
	.byte	$93
	.byte	$94
	.byte	$20
	.byte	$20
	.byte	$95
	.byte	$96
	.byte	$97
	.byte	$98
	.byte	$20
	.byte	$16
	.byte	$07
	.byte	$2A
	.byte	$2B
	.byte	$2C
	.byte	$2D
	.byte	$2E
	.byte	$2F
	.byte	$30
	.byte	$31
	.byte	$32
	.byte	$33
	.byte	$34
	.byte	$99
	.byte	$9A
	.byte	$9B
	.byte	$9C
	.byte	$9D
	.byte	$9E
	.byte	$9F
	.byte	$20
	.byte	$20
	.byte	$A0
	.byte	$A1
	.byte	$A2
	.byte	$A3
	.byte	$20
	.byte	$16
	.byte	$07
	.byte	$35
	.byte	$36
	.byte	$37
	.byte	$38
	.byte	$39
	.byte	$3A
	.byte	$3B
	.byte	$3C
	.byte	$3D
	.byte	$3D
	.byte	$3E
	.byte	$A4
	.byte	$A5
	.byte	$A6
	.byte	$38
	.byte	$16
	.byte	$02
	.byte	$A7
	.byte	$20
	.byte	$20
	.byte	$A8
	.byte	$A9
	.byte	$AA
	.byte	$AB
	.byte	$20
	.byte	$16
	.byte	$07
	.byte	$3F
	.byte	$40
	.byte	$41
	.byte	$38
	.byte	$42
	.byte	$43
	.byte	$44
	.byte	$3D
	.byte	$3D
	.byte	$45
	.byte	$38
	.byte	$AC
	.byte	$AD
	.byte	$AE
	.byte	$AF
	.byte	$B0
	.byte	$B1
	.byte	$B2
	.byte	$20
	.byte	$20
	.byte	$B3
	.byte	$B4
	.byte	$3D
	.byte	$AB
	.byte	$20
	.byte	$16
	.byte	$07
	.byte	$46
	.byte	$47
	.byte	$48
	.byte	$38
	.byte	$49
	.byte	$3C
	.byte	$3D
	.byte	$16
	.byte	$02
	.byte	$4A
	.byte	$38
	.byte	$16
	.byte	$02
	.byte	$B5
	.byte	$B6
	.byte	$B7
	.byte	$B8
	.byte	$B9
	.byte	$20
	.byte	$20
	.byte	$BA
	.byte	$3D
	.byte	$3D
	.byte	$AB
	.byte	$20
	.byte	$16
	.byte	$07
	.byte	$4B
	.byte	$4C
	.byte	$4D
	.byte	$38
	.byte	$4E
	.byte	$3D
	.byte	$16
	.byte	$03
	.byte	$4F
	.byte	$38
	.byte	$38
	.byte	$BB
	.byte	$20
	.byte	$16
	.byte	$06
	.byte	$BC
	.byte	$3D
	.byte	$3D
	.byte	$AB
	.byte	$20
	.byte	$16
	.byte	$07
	.byte	$50
	.byte	$3D
	.byte	$51
	.byte	$38
	.byte	$52
	.byte	$3D
	.byte	$3D
	.byte	$53
	.byte	$54
	.byte	$38
	.byte	$16
	.byte	$02
	.byte	$BD
	.byte	$BE
	.byte	$20
	.byte	$16
	.byte	$05
	.byte	$BF
	.byte	$3D
	.byte	$3D
	.byte	$AB
	.byte	$20
	.byte	$16
	.byte	$07
	.byte	$50
	.byte	$3D
	.byte	$55
	.byte	$38
	.byte	$56
	.byte	$57
	.byte	$58
	.byte	$59
	.byte	$5A
	.byte	$38
	.byte	$16
	.byte	$03
	.byte	$C0
	.byte	$C1
	.byte	$C2
	.byte	$C3
	.byte	$20
	.byte	$16
	.byte	$02
	.byte	$C4
	.byte	$C5
	.byte	$3D
	.byte	$AB
	.byte	$20
	.byte	$16
	.byte	$07
	.byte	$5B
	.byte	$3D
	.byte	$5C
	.byte	$38
	.byte	$5D
	.byte	$5E
	.byte	$5F
	.byte	$60
	.byte	$61
	.byte	$38
	.byte	$16
	.byte	$03
	.byte	$70
	.byte	$C6
	.byte	$C7
	.byte	$C8
	.byte	$C9
	.byte	$20
	.byte	$20
	.byte	$CA
	.byte	$CB
	.byte	$CC
	.byte	$AB
	.byte	$20
	.byte	$16
	.byte	$07
	.byte	$62
	.byte	$63
	.byte	$64
	.byte	$65
	.byte	$66
	.byte	$67
	.byte	$68
	.byte	$69
	.byte	$6A
	.byte	$6B
	.byte	$6C
	.byte	$CD
	.byte	$CE
	.byte	$CF
	.byte	$D0
	.byte	$D1
	.byte	$D2
	.byte	$D3
	.byte	$20
	.byte	$20
	.byte	$D4
	.byte	$D5
	.byte	$D6
	.byte	$D7
	.byte	$20
	.byte	$16
	.byte	$07
	.byte	$6D
	.byte	$6E
	.byte	$6F
	.byte	$70
	.byte	$71
	.byte	$72
	.byte	$73
	.byte	$74
	.byte	$75
	.byte	$47
	.byte	$16
	.byte	$06
	.byte	$D8
	.byte	$D9
	.byte	$20
	.byte	$20
	.byte	$DA
	.byte	$DB
	.byte	$DC
	.byte	$AB
	.byte	$20
	.byte	$16
	.byte	$08
	.byte	$76
	.byte	$77
	.byte	$78
	.byte	$79
	.byte	$7A
	.byte	$7B
	.byte	$7C
	.byte	$7D
	.byte	$47
	.byte	$47
	.byte	$DD
	.byte	$DE
	.byte	$DF
	.byte	$E0
	.byte	$E1
	.byte	$3D
	.byte	$E2
	.byte	$20
	.byte	$20
	.byte	$E3
	.byte	$E4
	.byte	$E5
	.byte	$E6
	.byte	$20
	.byte	$16
	.byte	$08
	.byte	$7E
	.byte	$3D
	.byte	$7F
	.byte	$80
	.byte	$81
	.byte	$82
	.byte	$83
	.byte	$84
	.byte	$85
	.byte	$86
	.byte	$E7
	.byte	$E8
	.byte	$E9
	.byte	$EA
	.byte	$EB
	.byte	$EC
	.byte	$ED
	.byte	$20
	.byte	$20
	.byte	$EE
	.byte	$EF
	.byte	$38
	.byte	$F0
	.byte	$20
	.byte	$16
	.byte	$08
	.byte	$87
	.byte	$88
	.byte	$89
	.byte	$89
	.byte	$8A
	.byte	$8B
	.byte	$8C
	.byte	$8D
	.byte	$8E
	.byte	$8F
	.byte	$F1
	.byte	$F2
	.byte	$F3
	.byte	$F4
	.byte	$F5
	.byte	$F6
	.byte	$F7
	.byte	$20
	.byte	$20
	.byte	$F8
	.byte	$F6
	.byte	$F6
	.byte	$F9
	.byte	$20
	.byte	$16
	.byte	$66
	.byte	$00
	.byte	$01
	.byte	$02
	.byte	$03
	.byte	$04
	.byte	$05
	.byte	$06
	.byte	$20
	.byte	$06
	.byte	$03
	.byte	$07
	.byte	$20
	.byte	$08
	.byte	$09
	.byte	$03
	.byte	$08
	.byte	$20
	.byte	$08
	.byte	$09
	.byte	$0A
	.byte	$06
	.byte	$01
	.byte	$20
	.byte	$16
	.byte	$29
	.byte	$0B
	.byte	$09
	.byte	$0A
	.byte	$20
	.byte	$0C
	.byte	$0D
	.byte	$0E
	.byte	$0F
	.byte	$10
	.byte	$20
	.byte	$08
	.byte	$09
	.byte	$01
	.byte	$20
	.byte	$0F
	.byte	$0A
	.byte	$11
	.byte	$04
	.byte	$08
	.byte	$03
	.byte	$0E
	.byte	$04
	.byte	$20
	.byte	$16
	.byte	$29
	.byte	$04
	.byte	$01
	.byte	$12
	.byte	$01
	.byte	$13
	.byte	$20
	.byte	$13
	.byte	$01
	.byte	$08
	.byte	$11
	.byte	$13
	.byte	$04
	.byte	$14
	.byte	$20
	.byte	$16
	.byte	$CE
	.byte	$00
	.byte	$16
	.byte	$20
	.byte	$50
	.byte	$16
	.byte	$04
	.byte	$10
	.byte	$00
	.byte	$00
	.byte	$55
	.byte	$16
	.byte	$02
	.byte	$15
	.byte	$05
	.byte	$01
	.byte	$00
	.byte	$16
	.byte	$0F
	.byte	$00
	.byte	$16
	.byte	$00
_intro8:
	.byte	$A4
	.byte	$00
	.byte	$A4
	.byte	$42
	.byte	$01
	.byte	$02
	.byte	$03
	.byte	$04
	.byte	$05
	.byte	$06
	.byte	$07
	.byte	$08
	.byte	$09
	.byte	$0A
	.byte	$00
	.byte	$A4
	.byte	$04
	.byte	$56
	.byte	$1F
	.byte	$A4
	.byte	$08
	.byte	$57
	.byte	$00
	.byte	$A4
	.byte	$05
	.byte	$0B
	.byte	$0C
	.byte	$0D
	.byte	$0E
	.byte	$0F
	.byte	$10
	.byte	$11
	.byte	$12
	.byte	$13
	.byte	$14
	.byte	$00
	.byte	$A4
	.byte	$04
	.byte	$58
	.byte	$1F
	.byte	$A4
	.byte	$08
	.byte	$57
	.byte	$00
	.byte	$A4
	.byte	$05
	.byte	$15
	.byte	$16
	.byte	$17
	.byte	$18
	.byte	$19
	.byte	$1A
	.byte	$1B
	.byte	$1C
	.byte	$1D
	.byte	$1E
	.byte	$00
	.byte	$A4
	.byte	$03
	.byte	$59
	.byte	$13
	.byte	$5A
	.byte	$5B
	.byte	$1F
	.byte	$A4
	.byte	$06
	.byte	$57
	.byte	$00
	.byte	$A4
	.byte	$05
	.byte	$15
	.byte	$1F
	.byte	$20
	.byte	$13
	.byte	$A4
	.byte	$02
	.byte	$21
	.byte	$22
	.byte	$23
	.byte	$00
	.byte	$A4
	.byte	$03
	.byte	$5C
	.byte	$5D
	.byte	$13
	.byte	$13
	.byte	$5E
	.byte	$5F
	.byte	$60
	.byte	$1F
	.byte	$A4
	.byte	$04
	.byte	$57
	.byte	$00
	.byte	$A4
	.byte	$05
	.byte	$15
	.byte	$24
	.byte	$25
	.byte	$13
	.byte	$A4
	.byte	$03
	.byte	$26
	.byte	$00
	.byte	$A4
	.byte	$04
	.byte	$61
	.byte	$62
	.byte	$13
	.byte	$A4
	.byte	$04
	.byte	$63
	.byte	$1F
	.byte	$A4
	.byte	$03
	.byte	$57
	.byte	$00
	.byte	$A4
	.byte	$05
	.byte	$15
	.byte	$27
	.byte	$28
	.byte	$13
	.byte	$A4
	.byte	$03
	.byte	$29
	.byte	$00
	.byte	$A4
	.byte	$03
	.byte	$2A
	.byte	$64
	.byte	$65
	.byte	$66
	.byte	$67
	.byte	$13
	.byte	$A4
	.byte	$02
	.byte	$68
	.byte	$1F
	.byte	$A4
	.byte	$03
	.byte	$57
	.byte	$00
	.byte	$A4
	.byte	$05
	.byte	$15
	.byte	$1F
	.byte	$2B
	.byte	$13
	.byte	$A4
	.byte	$03
	.byte	$2C
	.byte	$2D
	.byte	$00
	.byte	$A4
	.byte	$02
	.byte	$2E
	.byte	$69
	.byte	$6A
	.byte	$6B
	.byte	$13
	.byte	$A4
	.byte	$03
	.byte	$6C
	.byte	$6D
	.byte	$6E
	.byte	$1F
	.byte	$1F
	.byte	$57
	.byte	$00
	.byte	$A4
	.byte	$05
	.byte	$15
	.byte	$1F
	.byte	$2F
	.byte	$30
	.byte	$13
	.byte	$A4
	.byte	$02
	.byte	$31
	.byte	$32
	.byte	$33
	.byte	$00
	.byte	$00
	.byte	$34
	.byte	$6F
	.byte	$70
	.byte	$71
	.byte	$13
	.byte	$A4
	.byte	$05
	.byte	$72
	.byte	$73
	.byte	$1F
	.byte	$57
	.byte	$00
	.byte	$A4
	.byte	$05
	.byte	$15
	.byte	$1F
	.byte	$1F
	.byte	$35
	.byte	$13
	.byte	$A4
	.byte	$03
	.byte	$36
	.byte	$37
	.byte	$00
	.byte	$00
	.byte	$38
	.byte	$74
	.byte	$75
	.byte	$76
	.byte	$13
	.byte	$A4
	.byte	$06
	.byte	$77
	.byte	$1F
	.byte	$57
	.byte	$00
	.byte	$A4
	.byte	$05
	.byte	$15
	.byte	$1F
	.byte	$1F
	.byte	$39
	.byte	$3A
	.byte	$13
	.byte	$A4
	.byte	$03
	.byte	$3B
	.byte	$3C
	.byte	$3D
	.byte	$3E
	.byte	$78
	.byte	$79
	.byte	$7A
	.byte	$7B
	.byte	$13
	.byte	$A4
	.byte	$05
	.byte	$7C
	.byte	$1F
	.byte	$57
	.byte	$00
	.byte	$A4
	.byte	$05
	.byte	$15
	.byte	$1F
	.byte	$1F
	.byte	$3F
	.byte	$40
	.byte	$41
	.byte	$13
	.byte	$A4
	.byte	$04
	.byte	$42
	.byte	$43
	.byte	$7D
	.byte	$7E
	.byte	$7F
	.byte	$80
	.byte	$66
	.byte	$13
	.byte	$A4
	.byte	$03
	.byte	$81
	.byte	$82
	.byte	$1F
	.byte	$57
	.byte	$00
	.byte	$A4
	.byte	$05
	.byte	$15
	.byte	$1F
	.byte	$A4
	.byte	$03
	.byte	$44
	.byte	$13
	.byte	$A4
	.byte	$05
	.byte	$45
	.byte	$83
	.byte	$84
	.byte	$85
	.byte	$86
	.byte	$87
	.byte	$88
	.byte	$13
	.byte	$89
	.byte	$13
	.byte	$8A
	.byte	$8B
	.byte	$8C
	.byte	$57
	.byte	$00
	.byte	$A4
	.byte	$05
	.byte	$15
	.byte	$1F
	.byte	$A4
	.byte	$03
	.byte	$46
	.byte	$47
	.byte	$48
	.byte	$13
	.byte	$A4
	.byte	$02
	.byte	$49
	.byte	$4A
	.byte	$8D
	.byte	$1F
	.byte	$8E
	.byte	$8F
	.byte	$90
	.byte	$91
	.byte	$92
	.byte	$93
	.byte	$94
	.byte	$95
	.byte	$96
	.byte	$1F
	.byte	$57
	.byte	$00
	.byte	$A4
	.byte	$05
	.byte	$4B
	.byte	$4C
	.byte	$4C
	.byte	$4D
	.byte	$4E
	.byte	$4E
	.byte	$4F
	.byte	$50
	.byte	$51
	.byte	$52
	.byte	$53
	.byte	$54
	.byte	$55
	.byte	$97
	.byte	$98
	.byte	$99
	.byte	$9A
	.byte	$9B
	.byte	$9C
	.byte	$9D
	.byte	$9E
	.byte	$9F
	.byte	$A0
	.byte	$A1
	.byte	$A2
	.byte	$A3
	.byte	$00
	.byte	$A4
	.byte	$FE
	.byte	$00
	.byte	$A4
	.byte	$FE
	.byte	$00
	.byte	$A4
	.byte	$03
	.byte	$00
	.byte	$A4
	.byte	$00
_intro9:
	.byte	$EE
	.byte	$00
	.byte	$EE
	.byte	$42
	.byte	$01
	.byte	$02
	.byte	$03
	.byte	$04
	.byte	$05
	.byte	$06
	.byte	$07
	.byte	$08
	.byte	$09
	.byte	$0A
	.byte	$0B
	.byte	$0C
	.byte	$0D
	.byte	$77
	.byte	$78
	.byte	$79
	.byte	$7A
	.byte	$7B
	.byte	$7C
	.byte	$7D
	.byte	$7E
	.byte	$7F
	.byte	$80
	.byte	$81
	.byte	$82
	.byte	$00
	.byte	$EE
	.byte	$06
	.byte	$0E
	.byte	$00
	.byte	$0F
	.byte	$10
	.byte	$10
	.byte	$11
	.byte	$12
	.byte	$13
	.byte	$14
	.byte	$15
	.byte	$16
	.byte	$17
	.byte	$17
	.byte	$83
	.byte	$84
	.byte	$85
	.byte	$86
	.byte	$87
	.byte	$88
	.byte	$89
	.byte	$8A
	.byte	$8B
	.byte	$8C
	.byte	$8D
	.byte	$8E
	.byte	$00
	.byte	$EE
	.byte	$08
	.byte	$18
	.byte	$19
	.byte	$1A
	.byte	$1B
	.byte	$1C
	.byte	$1D
	.byte	$1E
	.byte	$1F
	.byte	$20
	.byte	$21
	.byte	$EE
	.byte	$04
	.byte	$8F
	.byte	$90
	.byte	$91
	.byte	$92
	.byte	$93
	.byte	$94
	.byte	$95
	.byte	$96
	.byte	$97
	.byte	$98
	.byte	$00
	.byte	$EE
	.byte	$07
	.byte	$22
	.byte	$23
	.byte	$24
	.byte	$25
	.byte	$26
	.byte	$27
	.byte	$28
	.byte	$29
	.byte	$21
	.byte	$EE
	.byte	$06
	.byte	$99
	.byte	$9A
	.byte	$9B
	.byte	$9C
	.byte	$9D
	.byte	$9E
	.byte	$9F
	.byte	$A0
	.byte	$A1
	.byte	$00
	.byte	$EE
	.byte	$05
	.byte	$2A
	.byte	$2B
	.byte	$2C
	.byte	$2D
	.byte	$2E
	.byte	$2F
	.byte	$30
	.byte	$31
	.byte	$21
	.byte	$EE
	.byte	$09
	.byte	$A2
	.byte	$A3
	.byte	$A4
	.byte	$A5
	.byte	$A6
	.byte	$A7
	.byte	$A8
	.byte	$A9
	.byte	$00
	.byte	$EE
	.byte	$05
	.byte	$32
	.byte	$33
	.byte	$34
	.byte	$35
	.byte	$36
	.byte	$37
	.byte	$38
	.byte	$39
	.byte	$3A
	.byte	$3B
	.byte	$21
	.byte	$EE
	.byte	$08
	.byte	$AA
	.byte	$AB
	.byte	$AC
	.byte	$AD
	.byte	$AE
	.byte	$AF
	.byte	$B0
	.byte	$00
	.byte	$EE
	.byte	$05
	.byte	$3C
	.byte	$3D
	.byte	$21
	.byte	$EE
	.byte	$03
	.byte	$3E
	.byte	$3F
	.byte	$40
	.byte	$41
	.byte	$42
	.byte	$43
	.byte	$44
	.byte	$B1
	.byte	$B2
	.byte	$B3
	.byte	$21
	.byte	$EE
	.byte	$06
	.byte	$B4
	.byte	$B5
	.byte	$B6
	.byte	$00
	.byte	$EE
	.byte	$05
	.byte	$45
	.byte	$21
	.byte	$EE
	.byte	$04
	.byte	$46
	.byte	$00
	.byte	$47
	.byte	$48
	.byte	$49
	.byte	$4A
	.byte	$10
	.byte	$B7
	.byte	$B8
	.byte	$B9
	.byte	$BA
	.byte	$21
	.byte	$EE
	.byte	$07
	.byte	$BB
	.byte	$00
	.byte	$EE
	.byte	$05
	.byte	$4B
	.byte	$21
	.byte	$EE
	.byte	$05
	.byte	$4C
	.byte	$4D
	.byte	$4E
	.byte	$4F
	.byte	$10
	.byte	$10
	.byte	$BC
	.byte	$BD
	.byte	$BE
	.byte	$BF
	.byte	$C0
	.byte	$21
	.byte	$EE
	.byte	$05
	.byte	$C1
	.byte	$C2
	.byte	$00
	.byte	$EE
	.byte	$05
	.byte	$50
	.byte	$21
	.byte	$EE
	.byte	$06
	.byte	$51
	.byte	$52
	.byte	$53
	.byte	$54
	.byte	$55
	.byte	$C3
	.byte	$C4
	.byte	$C5
	.byte	$C6
	.byte	$C7
	.byte	$21
	.byte	$EE
	.byte	$04
	.byte	$C8
	.byte	$C9
	.byte	$CA
	.byte	$00
	.byte	$EE
	.byte	$05
	.byte	$56
	.byte	$57
	.byte	$21
	.byte	$EE
	.byte	$05
	.byte	$58
	.byte	$59
	.byte	$5A
	.byte	$5B
	.byte	$5C
	.byte	$CB
	.byte	$CC
	.byte	$CD
	.byte	$CE
	.byte	$CF
	.byte	$21
	.byte	$EE
	.byte	$03
	.byte	$D0
	.byte	$D1
	.byte	$D2
	.byte	$D3
	.byte	$00
	.byte	$EE
	.byte	$05
	.byte	$5D
	.byte	$5E
	.byte	$5F
	.byte	$21
	.byte	$EE
	.byte	$05
	.byte	$60
	.byte	$61
	.byte	$62
	.byte	$63
	.byte	$D4
	.byte	$D5
	.byte	$21
	.byte	$EE
	.byte	$04
	.byte	$D6
	.byte	$D7
	.byte	$D8
	.byte	$D2
	.byte	$D2
	.byte	$D9
	.byte	$00
	.byte	$EE
	.byte	$05
	.byte	$64
	.byte	$65
	.byte	$66
	.byte	$67
	.byte	$68
	.byte	$69
	.byte	$6A
	.byte	$21
	.byte	$EE
	.byte	$09
	.byte	$DA
	.byte	$DB
	.byte	$DC
	.byte	$DD
	.byte	$D2
	.byte	$DE
	.byte	$DF
	.byte	$E0
	.byte	$E1
	.byte	$00
	.byte	$EE
	.byte	$05
	.byte	$6B
	.byte	$6C
	.byte	$6D
	.byte	$6E
	.byte	$6F
	.byte	$70
	.byte	$70
	.byte	$71
	.byte	$72
	.byte	$73
	.byte	$74
	.byte	$75
	.byte	$76
	.byte	$E2
	.byte	$E3
	.byte	$E4
	.byte	$E5
	.byte	$E6
	.byte	$70
	.byte	$E7
	.byte	$E8
	.byte	$E9
	.byte	$EA
	.byte	$EB
	.byte	$EC
	.byte	$ED
	.byte	$00
	.byte	$EE
	.byte	$FE
	.byte	$00
	.byte	$EE
	.byte	$FE
	.byte	$00
	.byte	$EE
	.byte	$03
	.byte	$00
	.byte	$EE
	.byte	$00
_title:
	.byte	$13
	.byte	$00
	.byte	$13
	.byte	$FE
	.byte	$00
	.byte	$13
	.byte	$81
	.byte	$01
	.byte	$02
	.byte	$03
	.byte	$04
	.byte	$03
	.byte	$05
	.byte	$03
	.byte	$06
	.byte	$03
	.byte	$03
	.byte	$07
	.byte	$08
	.byte	$03
	.byte	$09
	.byte	$03
	.byte	$03
	.byte	$24
	.byte	$25
	.byte	$03
	.byte	$03
	.byte	$26
	.byte	$27
	.byte	$03
	.byte	$03
	.byte	$28
	.byte	$03
	.byte	$00
	.byte	$13
	.byte	$05
	.byte	$0A
	.byte	$0B
	.byte	$0C
	.byte	$0D
	.byte	$0C
	.byte	$0E
	.byte	$0C
	.byte	$0F
	.byte	$10
	.byte	$11
	.byte	$12
	.byte	$0C
	.byte	$14
	.byte	$15
	.byte	$0C
	.byte	$2A
	.byte	$2B
	.byte	$2C
	.byte	$0C
	.byte	$0C
	.byte	$2D
	.byte	$2E
	.byte	$0C
	.byte	$0C
	.byte	$2F
	.byte	$0C
	.byte	$00
	.byte	$30
	.byte	$0C
	.byte	$31
	.byte	$32
	.byte	$00
	.byte	$0C
	.byte	$16
	.byte	$0C
	.byte	$0D
	.byte	$17
	.byte	$18
	.byte	$0C
	.byte	$19
	.byte	$1A
	.byte	$1B
	.byte	$1C
	.byte	$0C
	.byte	$1D
	.byte	$1E
	.byte	$0C
	.byte	$33
	.byte	$34
	.byte	$35
	.byte	$36
	.byte	$37
	.byte	$38
	.byte	$39
	.byte	$3A
	.byte	$3B
	.byte	$3C
	.byte	$0C
	.byte	$03
	.byte	$3D
	.byte	$0C
	.byte	$3E
	.byte	$3F
	.byte	$00
	.byte	$0C
	.byte	$13
	.byte	$02
	.byte	$0D
	.byte	$0B
	.byte	$1F
	.byte	$0C
	.byte	$19
	.byte	$20
	.byte	$0C
	.byte	$21
	.byte	$0C
	.byte	$0C
	.byte	$22
	.byte	$23
	.byte	$40
	.byte	$41
	.byte	$42
	.byte	$43
	.byte	$2D
	.byte	$00
	.byte	$39
	.byte	$44
	.byte	$45
	.byte	$3C
	.byte	$0C
	.byte	$0C
	.byte	$3C
	.byte	$0C
	.byte	$0C
	.byte	$0B
	.byte	$00
	.byte	$13
	.byte	$FE
	.byte	$00
	.byte	$13
	.byte	$D6
	.byte	$A0
	.byte	$20
	.byte	$AA
	.byte	$13
	.byte	$07
	.byte	$00
	.byte	$00
	.byte	$08
	.byte	$0A
	.byte	$13
	.byte	$04
	.byte	$00
	.byte	$13
	.byte	$16
	.byte	$00
	.byte	$13
	.byte	$00
_story_pal:
	.byte	$0F
	.byte	$06
	.byte	$17
	.byte	$27
	.byte	$0F
	.byte	$30
	.byte	$30
	.byte	$30
	.byte	$0F
	.byte	$16
	.byte	$00
	.byte	$30
	.byte	$0F
	.byte	$30
	.byte	$30
	.byte	$30
	.byte	$0F
	.byte	$06
	.byte	$17
	.byte	$27
	.byte	$0F
	.byte	$30
	.byte	$30
	.byte	$30
	.byte	$0F
	.byte	$16
	.byte	$00
	.byte	$30
	.byte	$0F
	.byte	$30
	.byte	$30
	.byte	$30
.segment	"BANK1"
_frisk_0_data:
	.byte	$00
	.byte	$10
	.byte	$07
	.byte	$00
	.byte	$00
	.byte	$00
	.byte	$01
	.byte	$00
	.byte	$08
	.byte	$00
	.byte	$03
	.byte	$00
	.byte	$10
	.byte	$00
	.byte	$05
	.byte	$00
	.byte	$08
	.byte	$10
	.byte	$09
	.byte	$00
	.byte	$10
	.byte	$10
	.byte	$0B
	.byte	$00
	.byte	$80
_frisk_1_data:
	.byte	$00
	.byte	$0F
	.byte	$0D
	.byte	$00
	.byte	$00
	.byte	$FF
	.byte	$01
	.byte	$00
	.byte	$08
	.byte	$FF
	.byte	$03
	.byte	$00
	.byte	$10
	.byte	$FF
	.byte	$05
	.byte	$00
	.byte	$08
	.byte	$0F
	.byte	$0F
	.byte	$00
	.byte	$10
	.byte	$0F
	.byte	$0B
	.byte	$00
	.byte	$80
_frisk_2_data:
	.byte	$00
	.byte	$0F
	.byte	$13
	.byte	$00
	.byte	$00
	.byte	$FF
	.byte	$01
	.byte	$00
	.byte	$08
	.byte	$FF
	.byte	$03
	.byte	$00
	.byte	$10
	.byte	$FF
	.byte	$05
	.byte	$00
	.byte	$08
	.byte	$0F
	.byte	$15
	.byte	$00
	.byte	$10
	.byte	$0F
	.byte	$0B
	.byte	$00
	.byte	$80
_frisk_3_data:
	.byte	$00
	.byte	$00
	.byte	$19
	.byte	$00
	.byte	$08
	.byte	$00
	.byte	$1B
	.byte	$00
	.byte	$10
	.byte	$00
	.byte	$1D
	.byte	$00
	.byte	$00
	.byte	$10
	.byte	$1F
	.byte	$00
	.byte	$08
	.byte	$10
	.byte	$21
	.byte	$00
	.byte	$80
_frisk_4_data:
	.byte	$00
	.byte	$01
	.byte	$19
	.byte	$00
	.byte	$08
	.byte	$01
	.byte	$1B
	.byte	$00
	.byte	$10
	.byte	$01
	.byte	$1D
	.byte	$00
	.byte	$00
	.byte	$11
	.byte	$23
	.byte	$00
	.byte	$08
	.byte	$11
	.byte	$25
	.byte	$00
	.byte	$80
_frisk_5_data:
	.byte	$0C
	.byte	$00
	.byte	$19
	.byte	$40
	.byte	$04
	.byte	$00
	.byte	$1B
	.byte	$40
	.byte	$FC
	.byte	$00
	.byte	$1D
	.byte	$40
	.byte	$0C
	.byte	$10
	.byte	$1F
	.byte	$40
	.byte	$04
	.byte	$10
	.byte	$21
	.byte	$40
	.byte	$80
_frisk_6_data:
	.byte	$0C
	.byte	$01
	.byte	$19
	.byte	$40
	.byte	$04
	.byte	$01
	.byte	$1B
	.byte	$40
	.byte	$FC
	.byte	$01
	.byte	$1D
	.byte	$40
	.byte	$0C
	.byte	$11
	.byte	$23
	.byte	$40
	.byte	$04
	.byte	$11
	.byte	$25
	.byte	$40
	.byte	$80
_frisk_7_data:
	.byte	$00
	.byte	$00
	.byte	$27
	.byte	$00
	.byte	$08
	.byte	$00
	.byte	$29
	.byte	$00
	.byte	$10
	.byte	$00
	.byte	$2B
	.byte	$00
	.byte	$00
	.byte	$10
	.byte	$2D
	.byte	$00
	.byte	$08
	.byte	$10
	.byte	$2F
	.byte	$00
	.byte	$10
	.byte	$10
	.byte	$31
	.byte	$00
	.byte	$80
_frisk_8_data:
	.byte	$00
	.byte	$FF
	.byte	$27
	.byte	$00
	.byte	$08
	.byte	$FF
	.byte	$29
	.byte	$00
	.byte	$10
	.byte	$FF
	.byte	$2B
	.byte	$00
	.byte	$00
	.byte	$0F
	.byte	$33
	.byte	$00
	.byte	$08
	.byte	$0F
	.byte	$35
	.byte	$00
	.byte	$10
	.byte	$0F
	.byte	$37
	.byte	$00
	.byte	$80
_frisk_9_data:
	.byte	$00
	.byte	$FF
	.byte	$27
	.byte	$00
	.byte	$08
	.byte	$FF
	.byte	$29
	.byte	$00
	.byte	$10
	.byte	$FF
	.byte	$2B
	.byte	$00
	.byte	$00
	.byte	$0F
	.byte	$39
	.byte	$00
	.byte	$08
	.byte	$0F
	.byte	$3B
	.byte	$00
	.byte	$10
	.byte	$0F
	.byte	$3D
	.byte	$00
	.byte	$80
_umbrella_0_data:
	.byte	$00
	.byte	$00
	.byte	$3E
	.byte	$01
	.byte	$08
	.byte	$00
	.byte	$40
	.byte	$01
	.byte	$10
	.byte	$00
	.byte	$42
	.byte	$01
	.byte	$18
	.byte	$00
	.byte	$40
	.byte	$41
	.byte	$20
	.byte	$00
	.byte	$3E
	.byte	$41
	.byte	$10
	.byte	$10
	.byte	$44
	.byte	$01
	.byte	$80
_frisk_pal:
	.byte	$0F
	.byte	$06
	.byte	$27
	.byte	$2C
.segment	"BANK2"
.segment	"CODE"
.segment	"STARTUP"
.segment	"CODE"
.segment	"BANK0"
.segment	"BANK1"
.segment	"BANK2"
.segment	"CODE"

.segment	"BSS"

_bankLevel:
	.res	1,$00
_bankBuffer:
	.res	10,$00
.segment	"ZEROPAGE"
_pad_state_1:
	.res	1,$00
_pad_new_1:
	.res	1,$00
_frisk_x:
	.res	1,$00
_frisk_y:
	.res	1,$00
_frisk_face:
	.res	1,$00
_frisk_frame_delay:
	.res	1,$00
_frisk_frame:
	.res	1,$00
.segment	"XRAM"
_wram_array:
	.res	8192,$00

; ---------------------------------------------------------------
; void __near__ banked_call (unsigned char bankId, void (*method)(void))
; ---------------------------------------------------------------

.segment	"STARTUP"

.proc	_banked_call: near

.segment	"STARTUP"

;
; void banked_call(unsigned char bankId, void (*method)(void)) {
;
	jsr     pushax
;
; bank_push(bankId);
;
	ldy     #$02
	lda     (sp),y
	jsr     _bank_push
;
; (*method)();
;
	ldy     #$01
	lda     (sp),y
	tax
	dey
	lda     (sp),y
	jsr     callax
;
; bank_pop();
;
	jsr     _bank_pop
;
; }
;
	jmp     incsp3

.endproc

; ---------------------------------------------------------------
; void __near__ bank_push (unsigned char bankId)
; ---------------------------------------------------------------

.segment	"STARTUP"

.proc	_bank_push: near

.segment	"STARTUP"

;
; void bank_push(unsigned char bankId) {
;
	jsr     pusha
;
; bankBuffer[bankLevel] = get_prg_8000();
;
	lda     #<(_bankBuffer)
	ldx     #>(_bankBuffer)
	clc
	adc     _bankLevel
	bcc     L0002
	inx
L0002:	jsr     pushax
	jsr     _get_prg_8000
	ldy     #$00
	jsr     staspidx
;
; ++bankLevel;
;
	inc     _bankLevel
;
; set_prg_8000(bankId);
;
	ldy     #$00
	lda     (sp),y
	jsr     _set_prg_8000
;
; }
;
	jmp     incsp1

.endproc

; ---------------------------------------------------------------
; void __near__ bank_pop (void)
; ---------------------------------------------------------------

.segment	"STARTUP"

.proc	_bank_pop: near

.segment	"STARTUP"

;
; if (bankLevel != 0) {
;
	lda     _bankLevel
	beq     L0002
;
; --bankLevel;
;
	dec     _bankLevel
;
; set_prg_8000(bankBuffer[bankLevel]);
;
	ldy     _bankLevel
	lda     _bankBuffer,y
	jmp     _set_prg_8000
;
; }
;
L0002:	rts

.endproc

; ---------------------------------------------------------------
; void __near__ pal_one (const unsigned char *pal_data, unsigned char pal_index)
; ---------------------------------------------------------------

.segment	"CODE"

.proc	_pal_one: near

.segment	"CODE"

;
; void pal_one(const unsigned char *pal_data, unsigned char pal_index){
;
	jsr     pusha
;
; pal_col(pal_index*4,   pal_data[0]);
;
	ldy     #$00
	lda     (sp),y
	asl     a
	asl     a
	jsr     pusha
	ldy     #$03
	lda     (sp),y
	sta     ptr1+1
	dey
	lda     (sp),y
	sta     ptr1
	ldy     #$00
	lda     (ptr1),y
	jsr     _pal_col
;
; pal_col(pal_index*4+1, pal_data[1]);
;
	ldy     #$00
	lda     (sp),y
	asl     a
	asl     a
	clc
	adc     #$01
	jsr     pusha
	ldy     #$03
	lda     (sp),y
	tax
	dey
	lda     (sp),y
	dey
	sta     ptr1
	stx     ptr1+1
	lda     (ptr1),y
	jsr     _pal_col
;
; pal_col(pal_index*4+2, pal_data[2]);
;
	ldy     #$00
	lda     (sp),y
	asl     a
	asl     a
	clc
	adc     #$02
	jsr     pusha
	ldy     #$03
	lda     (sp),y
	tax
	dey
	lda     (sp),y
	sta     ptr1
	stx     ptr1+1
	lda     (ptr1),y
	jsr     _pal_col
;
; pal_col(pal_index*4+3, pal_data[3]);
;
	ldy     #$00
	lda     (sp),y
	asl     a
	asl     a
	clc
	adc     #$03
	jsr     pusha
	ldy     #$03
	lda     (sp),y
	tax
	dey
	lda     (sp),y
	iny
	sta     ptr1
	stx     ptr1+1
	lda     (ptr1),y
	jsr     _pal_col
;
; }
;
	jmp     incsp3

.endproc

; ---------------------------------------------------------------
; void __near__ get_pad_all (void)
; ---------------------------------------------------------------

.segment	"CODE"

.proc	_get_pad_all: near

.segment	"CODE"

;
; pad_state_1 = pad_poll(0);
;
	lda     #$00
	jsr     _pad_poll
	sta     _pad_state_1
;
; pad_new_1 = get_pad_new(0);
;
	lda     #$00
	jsr     _get_pad_new
	sta     _pad_new_1
;
; }
;
	rts

.endproc

; ---------------------------------------------------------------
; void __near__ set_pal_intro (void)
; ---------------------------------------------------------------

.segment	"BANK0"

.proc	_set_pal_intro: near

.segment	"BANK0"

;
; pal_clear();
;
	jsr     _pal_clear
;
; pal_all(story_pal);
;
	lda     #<(_story_pal)
	ldx     #>(_story_pal)
	jmp     _pal_all

.endproc

; ---------------------------------------------------------------
; void __near__ play_story_cut (void)
; ---------------------------------------------------------------

.segment	"BANK0"

.proc	_play_story_cut: near

.segment	"BANK0"

;
; banked_call(0, set_pal_intro);
;
	lda     #$00
	jsr     pusha
	lda     #<(_set_pal_intro)
	ldx     #>(_set_pal_intro)
	jsr     _banked_call
;
; famistudio_music_play(0);
;
	lda     #$00
	jsr     _famistudio_music_play
;
; ppu_off();
;
	jsr     _ppu_off
;
; vram_adr(NAMETABLE_A);
;
	ldx     #$20
	lda     #$00
	jsr     _vram_adr
;
; vram_unrle(intro1);
;
	lda     #<(_intro1)
	ldx     #>(_intro1)
	jsr     _vram_unrle
;
; ppu_wait_nmi();
;
	jsr     _ppu_wait_nmi
;
; ppu_on_all();
;
	jsr     _ppu_on_all
;
; for(temp0=480;temp0>0;--temp0)ppu_wait_nmi();
;
	lda     #$00
	sta     _temp0+3
	sta     _temp0+2
	lda     #$01
	sta     _temp0+1
	lda     #$E0
	sta     _temp0
L0002:	lda     _temp0+3
	sta     sreg+1
	lda     _temp0+2
	sta     sreg
	ldx     _temp0+1
	lda     _temp0
	jsr     pusheax
	lda     #$00
	sta     sreg+1
	sta     sreg
	lda     #$01
	ldx     #$00
	jsr     tosgeeax
	beq     L0003
	jsr     _ppu_wait_nmi
	ldy     #<(_temp0)
	sty     ptr1
	ldy     #>(_temp0)
	lda     #$01
	jsr     lsubeqa
	jmp     L0002
;
; pal_fade_to(4, 0);
;
L0003:	lda     #$04
	jsr     pusha
	lda     #$00
	jsr     _pal_fade_to
;
; ppu_off();
;
	jsr     _ppu_off
;
; set_chr_mode_3(4);
;
	lda     #$04
	jsr     _set_chr_mode_3
;
; set_chr_mode_4(5);
;
	lda     #$05
	jsr     _set_chr_mode_4
;
; set_chr_mode_5(6);
;
	lda     #$06
	jsr     _set_chr_mode_5
;
; vram_adr(NAMETABLE_A);
;
	ldx     #$20
	lda     #$00
	jsr     _vram_adr
;
; vram_unrle(intro2);
;
	lda     #<(_intro2)
	ldx     #>(_intro2)
	jsr     _vram_unrle
;
; ppu_wait_nmi();
;
	jsr     _ppu_wait_nmi
;
; ppu_on_all();
;
	jsr     _ppu_on_all
;
; pal_fade_to(0, 4);
;
	lda     #$00
	jsr     pusha
	lda     #$04
	jsr     _pal_fade_to
;
; for(temp0=300;temp0>0;--temp0)ppu_wait_nmi();
;
	lda     #$00
	sta     _temp0+3
	sta     _temp0+2
	lda     #$01
	sta     _temp0+1
	lda     #$2C
	sta     _temp0
L0006:	lda     _temp0+3
	sta     sreg+1
	lda     _temp0+2
	sta     sreg
	ldx     _temp0+1
	lda     _temp0
	jsr     pusheax
	lda     #$00
	sta     sreg+1
	sta     sreg
	lda     #$01
	ldx     #$00
	jsr     tosgeeax
	beq     L0007
	jsr     _ppu_wait_nmi
	ldy     #<(_temp0)
	sty     ptr1
	ldy     #>(_temp0)
	lda     #$01
	jsr     lsubeqa
	jmp     L0006
;
; pal_fade_to(4, 0);
;
L0007:	lda     #$04
	jsr     pusha
	lda     #$00
	jsr     _pal_fade_to
;
; ppu_off();
;
	jsr     _ppu_off
;
; set_chr_mode_3(7);
;
	lda     #$07
	jsr     _set_chr_mode_3
;
; set_chr_mode_4(8);
;
	lda     #$08
	jsr     _set_chr_mode_4
;
; set_chr_mode_5(9);
;
	lda     #$09
	jsr     _set_chr_mode_5
;
; vram_adr(NAMETABLE_A);
;
	ldx     #$20
	lda     #$00
	jsr     _vram_adr
;
; vram_unrle(intro3);
;
	lda     #<(_intro3)
	ldx     #>(_intro3)
	jsr     _vram_unrle
;
; ppu_wait_nmi();
;
	jsr     _ppu_wait_nmi
;
; ppu_on_all();
;
	jsr     _ppu_on_all
;
; pal_fade_to(0, 4);
;
	lda     #$00
	jsr     pusha
	lda     #$04
	jsr     _pal_fade_to
;
; for(temp0=300;temp0>0;--temp0)ppu_wait_nmi();
;
	lda     #$00
	sta     _temp0+3
	sta     _temp0+2
	lda     #$01
	sta     _temp0+1
	lda     #$2C
	sta     _temp0
L000A:	lda     _temp0+3
	sta     sreg+1
	lda     _temp0+2
	sta     sreg
	ldx     _temp0+1
	lda     _temp0
	jsr     pusheax
	lda     #$00
	sta     sreg+1
	sta     sreg
	lda     #$01
	ldx     #$00
	jsr     tosgeeax
	beq     L000B
	jsr     _ppu_wait_nmi
	ldy     #<(_temp0)
	sty     ptr1
	ldy     #>(_temp0)
	lda     #$01
	jsr     lsubeqa
	jmp     L000A
;
; pal_fade_to(4, 0);
;
L000B:	lda     #$04
	jsr     pusha
	lda     #$00
	jsr     _pal_fade_to
;
; ppu_off();
;
	jsr     _ppu_off
;
; vram_adr(NAMETABLE_A);
;
	ldx     #$20
	lda     #$00
	jsr     _vram_adr
;
; vram_unrle(intro4);
;
	lda     #<(_intro4)
	ldx     #>(_intro4)
	jsr     _vram_unrle
;
; ppu_wait_nmi();
;
	jsr     _ppu_wait_nmi
;
; ppu_on_all();
;
	jsr     _ppu_on_all
;
; pal_fade_to(0, 4);
;
	lda     #$00
	jsr     pusha
	lda     #$04
	jsr     _pal_fade_to
;
; for(temp0=300;temp0>0;--temp0)ppu_wait_nmi();
;
	lda     #$00
	sta     _temp0+3
	sta     _temp0+2
	lda     #$01
	sta     _temp0+1
	lda     #$2C
	sta     _temp0
L000E:	lda     _temp0+3
	sta     sreg+1
	lda     _temp0+2
	sta     sreg
	ldx     _temp0+1
	lda     _temp0
	jsr     pusheax
	lda     #$00
	sta     sreg+1
	sta     sreg
	lda     #$01
	ldx     #$00
	jsr     tosgeeax
	beq     L000F
	jsr     _ppu_wait_nmi
	ldy     #<(_temp0)
	sty     ptr1
	ldy     #>(_temp0)
	lda     #$01
	jsr     lsubeqa
	jmp     L000E
;
; pal_fade_to(4, 0);
;
L000F:	lda     #$04
	jsr     pusha
	lda     #$00
	jsr     _pal_fade_to
;
; ppu_off();
;
	jsr     _ppu_off
;
; vram_adr(NAMETABLE_A);
;
	ldx     #$20
	lda     #$00
	jsr     _vram_adr
;
; vram_unrle(intro5);
;
	lda     #<(_intro5)
	ldx     #>(_intro5)
	jsr     _vram_unrle
;
; ppu_wait_nmi();
;
	jsr     _ppu_wait_nmi
;
; ppu_on_all();
;
	jsr     _ppu_on_all
;
; pal_fade_to(0, 4);
;
	lda     #$00
	jsr     pusha
	lda     #$04
	jsr     _pal_fade_to
;
; for(temp0=300;temp0>0;--temp0)ppu_wait_nmi();
;
	lda     #$00
	sta     _temp0+3
	sta     _temp0+2
	lda     #$01
	sta     _temp0+1
	lda     #$2C
	sta     _temp0
L0012:	lda     _temp0+3
	sta     sreg+1
	lda     _temp0+2
	sta     sreg
	ldx     _temp0+1
	lda     _temp0
	jsr     pusheax
	lda     #$00
	sta     sreg+1
	sta     sreg
	lda     #$01
	ldx     #$00
	jsr     tosgeeax
	beq     L0013
	jsr     _ppu_wait_nmi
	ldy     #<(_temp0)
	sty     ptr1
	ldy     #>(_temp0)
	lda     #$01
	jsr     lsubeqa
	jmp     L0012
;
; pal_fade_to(4, 0);
;
L0013:	lda     #$04
	jsr     pusha
	lda     #$00
	jsr     _pal_fade_to
;
; ppu_off();
;
	jsr     _ppu_off
;
; set_chr_mode_3(10);
;
	lda     #$0A
	jsr     _set_chr_mode_3
;
; set_chr_mode_4(11);
;
	lda     #$0B
	jsr     _set_chr_mode_4
;
; set_chr_mode_5(12);
;
	lda     #$0C
	jsr     _set_chr_mode_5
;
; vram_adr(NAMETABLE_A);
;
	ldx     #$20
	lda     #$00
	jsr     _vram_adr
;
; vram_unrle(intro6);
;
	lda     #<(_intro6)
	ldx     #>(_intro6)
	jsr     _vram_unrle
;
; ppu_wait_nmi();
;
	jsr     _ppu_wait_nmi
;
; ppu_on_all();
;
	jsr     _ppu_on_all
;
; pal_fade_to(0, 4);
;
	lda     #$00
	jsr     pusha
	lda     #$04
	jsr     _pal_fade_to
;
; for(temp0=300;temp0>0;--temp0)ppu_wait_nmi();
;
	lda     #$00
	sta     _temp0+3
	sta     _temp0+2
	lda     #$01
	sta     _temp0+1
	lda     #$2C
	sta     _temp0
L0016:	lda     _temp0+3
	sta     sreg+1
	lda     _temp0+2
	sta     sreg
	ldx     _temp0+1
	lda     _temp0
	jsr     pusheax
	lda     #$00
	sta     sreg+1
	sta     sreg
	lda     #$01
	ldx     #$00
	jsr     tosgeeax
	beq     L0017
	jsr     _ppu_wait_nmi
	ldy     #<(_temp0)
	sty     ptr1
	ldy     #>(_temp0)
	lda     #$01
	jsr     lsubeqa
	jmp     L0016
;
; pal_fade_to(4, 0);
;
L0017:	lda     #$04
	jsr     pusha
	lda     #$00
	jsr     _pal_fade_to
;
; ppu_off();
;
	jsr     _ppu_off
;
; set_chr_mode_2(13);
;
	lda     #$0D
	jsr     _set_chr_mode_2
;
; set_chr_mode_3(14);
;
	lda     #$0E
	jsr     _set_chr_mode_3
;
; set_chr_mode_4(15);
;
	lda     #$0F
	jsr     _set_chr_mode_4
;
; set_chr_mode_5(16);
;
	lda     #$10
	jsr     _set_chr_mode_5
;
; vram_adr(NAMETABLE_A);
;
	ldx     #$20
	lda     #$00
	jsr     _vram_adr
;
; vram_unrle(intro7);
;
	lda     #<(_intro7)
	ldx     #>(_intro7)
	jsr     _vram_unrle
;
; ppu_wait_nmi();
;
	jsr     _ppu_wait_nmi
;
; ppu_on_all();
;
	jsr     _ppu_on_all
;
; pal_fade_to(0, 4);
;
	lda     #$00
	jsr     pusha
	lda     #$04
	jsr     _pal_fade_to
;
; for(temp0=600;temp0>0;--temp0)ppu_wait_nmi();
;
	lda     #$00
	sta     _temp0+3
	sta     _temp0+2
	lda     #$02
	sta     _temp0+1
	lda     #$58
	sta     _temp0
L001A:	lda     _temp0+3
	sta     sreg+1
	lda     _temp0+2
	sta     sreg
	ldx     _temp0+1
	lda     _temp0
	jsr     pusheax
	lda     #$00
	sta     sreg+1
	sta     sreg
	lda     #$01
	ldx     #$00
	jsr     tosgeeax
	beq     L001B
	jsr     _ppu_wait_nmi
	ldy     #<(_temp0)
	sty     ptr1
	ldy     #>(_temp0)
	lda     #$01
	jsr     lsubeqa
	jmp     L001A
;
; pal_fade_to(4, 0);
;
L001B:	lda     #$04
	jsr     pusha
	lda     #$00
	jsr     _pal_fade_to
;
; ppu_off();
;
	jsr     _ppu_off
;
; set_chr_mode_2(17);
;
	lda     #$11
	jsr     _set_chr_mode_2
;
; set_chr_mode_3(18);
;
	lda     #$12
	jsr     _set_chr_mode_3
;
; set_chr_mode_4(19);
;
	lda     #$13
	jsr     _set_chr_mode_4
;
; set_chr_mode_5(20);
;
	lda     #$14
	jsr     _set_chr_mode_5
;
; vram_adr(NAMETABLE_A);
;
	ldx     #$20
	lda     #$00
	jsr     _vram_adr
;
; vram_unrle(intro8);
;
	lda     #<(_intro8)
	ldx     #>(_intro8)
	jsr     _vram_unrle
;
; ppu_wait_nmi();
;
	jsr     _ppu_wait_nmi
;
; ppu_on_all();
;
	jsr     _ppu_on_all
;
; pal_fade_to(0, 4);
;
	lda     #$00
	jsr     pusha
	lda     #$04
	jsr     _pal_fade_to
;
; for(temp0=600;temp0>0;--temp0)ppu_wait_nmi();
;
	lda     #$00
	sta     _temp0+3
	sta     _temp0+2
	lda     #$02
	sta     _temp0+1
	lda     #$58
	sta     _temp0
L001E:	lda     _temp0+3
	sta     sreg+1
	lda     _temp0+2
	sta     sreg
	ldx     _temp0+1
	lda     _temp0
	jsr     pusheax
	lda     #$00
	sta     sreg+1
	sta     sreg
	lda     #$01
	ldx     #$00
	jsr     tosgeeax
	beq     L001F
	jsr     _ppu_wait_nmi
	ldy     #<(_temp0)
	sty     ptr1
	ldy     #>(_temp0)
	lda     #$01
	jsr     lsubeqa
	jmp     L001E
;
; pal_fade_to(4, 0);
;
L001F:	lda     #$04
	jsr     pusha
	lda     #$00
	jsr     _pal_fade_to
;
; ppu_off();
;
	jsr     _ppu_off
;
; set_chr_mode_2(20);
;
	lda     #$14
	jsr     _set_chr_mode_2
;
; set_chr_mode_3(21);
;
	lda     #$15
	jsr     _set_chr_mode_3
;
; set_chr_mode_4(22);
;
	lda     #$16
	jsr     _set_chr_mode_4
;
; set_chr_mode_5(23);
;
	lda     #$17
	jsr     _set_chr_mode_5
;
; vram_adr(NAMETABLE_A);
;
	ldx     #$20
	lda     #$00
	jsr     _vram_adr
;
; vram_unrle(intro9);
;
	lda     #<(_intro9)
	ldx     #>(_intro9)
	jsr     _vram_unrle
;
; ppu_wait_nmi();
;
	jsr     _ppu_wait_nmi
;
; ppu_on_all();
;
	jsr     _ppu_on_all
;
; pal_fade_to(0, 4);
;
	lda     #$00
	jsr     pusha
	lda     #$04
	jsr     _pal_fade_to
;
; for(temp0=1800;temp0>0;--temp0)ppu_wait_nmi();
;
	lda     #$00
	sta     _temp0+3
	sta     _temp0+2
	lda     #$07
	sta     _temp0+1
	lda     #$08
	sta     _temp0
L0022:	lda     _temp0+3
	sta     sreg+1
	lda     _temp0+2
	sta     sreg
	ldx     _temp0+1
	lda     _temp0
	jsr     pusheax
	lda     #$00
	sta     sreg+1
	sta     sreg
	lda     #$01
	ldx     #$00
	jsr     tosgeeax
	beq     L0023
	jsr     _ppu_wait_nmi
	ldy     #<(_temp0)
	sty     ptr1
	ldy     #>(_temp0)
	lda     #$01
	jsr     lsubeqa
	jmp     L0022
;
; pal_fade_to(4, 0);
;
L0023:	lda     #$04
	jsr     pusha
	lda     #$00
	jmp     _pal_fade_to

.endproc

; ---------------------------------------------------------------
; void __near__ play_title (void)
; ---------------------------------------------------------------

.segment	"BANK0"

.proc	_play_title: near

.segment	"BANK0"

;
; set_chr_mode_2(24);
;
	lda     #$18
	jsr     _set_chr_mode_2
;
; set_chr_mode_3(25);
;
	lda     #$19
	jsr     _set_chr_mode_3
;
; ppu_off();
;
	jsr     _ppu_off
;
; vram_adr(NAMETABLE_A);
;
	ldx     #$20
	lda     #$00
	jsr     _vram_adr
;
; vram_unrle(title);
;
	lda     #<(_title)
	ldx     #>(_title)
	jsr     _vram_unrle
;
; ppu_wait_nmi();
;
	jsr     _ppu_wait_nmi
;
; ppu_on_all();
;
	jsr     _ppu_on_all
;
; famistudio_sfx_play(0, FAMISTUDIO_SFX_CH0);
;
	lda     #$00
	jsr     pusha
	jsr     _famistudio_sfx_play
;
; pal_bright(4);
;
	lda     #$04
	jsr     _pal_bright
;
; pad_state_1 = pad_poll(0);
;
L0002:	lda     #$00
	jsr     _pad_poll
	sta     _pad_state_1
;
; pad_new_1 = get_pad_new(0);
;
	lda     #$00
	jsr     _get_pad_new
	sta     _pad_new_1
;
; if((pad_state_1 & PAD_LEFT)&&(pad_state_1 & PAD_UP)&&(pad_state_1 & PAD_B)&&(pad_new_1 & PAD_A))famistudio_sfx_play(1, FAMISTUDIO_SFX_CH0);
;
	lda     _pad_state_1
	and     #$02
	beq     L000D
	lda     _pad_state_1
	and     #$08
	beq     L000D
	lda     _pad_state_1
	and     #$40
	beq     L000D
	lda     _pad_new_1
	and     #$80
	beq     L000D
	lda     #$01
	jsr     pusha
	lda     #$00
	jsr     _famistudio_sfx_play
;
; if(pad_new_1 & PAD_START)break;
;
L000D:	lda     _pad_new_1
	and     #$10
	bne     L0003
;
; ppu_wait_nmi();
;
	jsr     _ppu_wait_nmi
;
; while(TRUE){
;
	jmp     L0002
;
; }
;
L0003:	rts

.endproc

; ---------------------------------------------------------------
; void __near__ set_frisk (void)
; ---------------------------------------------------------------

.segment	"BANK1"

.proc	_set_frisk: near

.segment	"BANK1"

;
; set_chr_mode_0(26);
;
	lda     #$1A
	jsr     _set_chr_mode_0
;
; pal_one(frisk_pal, 4);
;
	lda     #<(_frisk_pal)
	ldx     #>(_frisk_pal)
	jsr     pushax
	lda     #$04
	jsr     _pal_one
;
; frisk_face = FRISK_FACE_DOWN;
;
	lda     #$01
	sta     _frisk_face
;
; }
;
	rts

.endproc

; ---------------------------------------------------------------
; void __near__ update_frisk (void)
; ---------------------------------------------------------------

.segment	"BANK1"

.proc	_update_frisk: near

.segment	"BANK1"

;
; oam_meta_spr(frisk_x, frisk_y, frisk_all[frisk_face][frisk_frame]);
;
	jsr     decsp2
	lda     _frisk_x
	ldy     #$01
	sta     (sp),y
	lda     _frisk_y
	dey
	sta     (sp),y
	ldx     #$00
	lda     _frisk_face
	asl     a
	bcc     L000F
	inx
	clc
L000F:	adc     #<(_frisk_all)
	sta     ptr1
	txa
	adc     #>(_frisk_all)
	sta     ptr1+1
	iny
	lda     (ptr1),y
	tax
	dey
	lda     (ptr1),y
	sta     ptr1
	stx     ptr1+1
	ldx     #$00
	lda     _frisk_frame
	asl     a
	bcc     L0010
	inx
	clc
L0010:	adc     ptr1
	sta     ptr1
	txa
	adc     ptr1+1
	sta     ptr1+1
	iny
	lda     (ptr1),y
	tax
	dey
	lda     (ptr1),y
	jsr     _oam_meta_spr
;
; if(pad_state_1 & PAD_UP){
;
	lda     _pad_state_1
	and     #$08
	beq     L0011
;
; frisk_y-=2;
;
	lda     _frisk_y
	sec
	sbc     #$02
	sta     _frisk_y
;
; frisk_face=FRISK_FACE_UP;
;
	lda     #$00
	sta     _frisk_face
;
; if(pad_state_1 & PAD_DOWN){
;
L0011:	lda     _pad_state_1
	and     #$04
	beq     L0012
;
; frisk_y+=2;
;
	lda     #$02
	clc
	adc     _frisk_y
	sta     _frisk_y
;
; frisk_face=FRISK_FACE_DOWN;
;
	lda     #$01
	sta     _frisk_face
;
; if(pad_state_1 & PAD_LEFT){
;
L0012:	lda     _pad_state_1
	and     #$02
	beq     L0013
;
; frisk_x-=2;
;
	lda     _frisk_x
	sec
	sbc     #$02
	sta     _frisk_x
;
; frisk_face=FRISK_FACE_LEFT;
;
	lda     #$02
	sta     _frisk_face
;
; if(pad_state_1 & PAD_RIGHT){
;
L0013:	lda     _pad_state_1
	and     #$01
	beq     L0014
;
; frisk_x+=2;
;
	lda     #$02
	clc
	adc     _frisk_x
	sta     _frisk_x
;
; frisk_face=FRISK_FACE_RIGHT;
;
	lda     #$03
	sta     _frisk_face
;
; if((pad_state_1 & PAD_UP)||(pad_state_1 & PAD_DOWN)||(pad_state_1 & PAD_LEFT)||(pad_state_1 & PAD_RIGHT)){
;
L0014:	lda     _pad_state_1
	and     #$08
	bne     L0015
	lda     _pad_state_1
	and     #$04
	bne     L0015
	lda     _pad_state_1
	and     #$02
	bne     L0015
	lda     _pad_state_1
	and     #$01
	beq     L0018
;
; if(frisk_frame_delay==0){
;
L0015:	lda     _frisk_frame_delay
	bne     L0016
;
; ++frisk_frame;
;
	inc     _frisk_frame
;
; frisk_frame_delay=8;
;
	lda     #$08
	sta     _frisk_frame_delay
;
; if(frisk_frame==4)frisk_frame=0;
;
	lda     _frisk_frame
	cmp     #$04
	bne     L000B
	lda     #$00
	sta     _frisk_frame
;
; }else --frisk_frame_delay;
;
	rts
L0016:	dec     _frisk_frame_delay
;
; }else{
;
L000B:	rts
;
; frisk_frame = 0;
;
L0018:	sta     _frisk_frame
;
; frisk_frame_delay = 0;
;
	sta     _frisk_frame_delay
;
; }
;
	rts

.endproc

; ---------------------------------------------------------------
; void __near__ set_bk_tileset (void)
; ---------------------------------------------------------------

.segment	"BANK2"

.proc	_set_bk_tileset: near

.segment	"BANK2"

;
; set_chr_mode_2(0);
;
	lda     #$00
	jsr     _set_chr_mode_2
;
; set_chr_mode_3(1);
;
	lda     #$01
	jmp     _set_chr_mode_3

.endproc

; ---------------------------------------------------------------
; void __near__ main (void)
; ---------------------------------------------------------------

.segment	"CODE"

.proc	_main: near

.segment	"CODE"

;
; ppu_off();
;
	jsr     _ppu_off
;
; ppu_on_all();
;
	jsr     _ppu_on_all
;
; set_vram_buffer();
;
	jsr     _set_vram_buffer
;
; banked_call(0, play_story_cut);
;
	lda     #$00
	jsr     pusha
	lda     #<(_play_story_cut)
	ldx     #>(_play_story_cut)
	jsr     _banked_call
;
; famistudio_music_stop();
;
	jsr     _famistudio_music_stop
;
; banked_call(0, play_title);
;
	lda     #$00
	jsr     pusha
	lda     #<(_play_title)
	ldx     #>(_play_title)
	jsr     _banked_call
;
; banked_call(1, set_frisk);
;
	lda     #$01
	jsr     pusha
	lda     #<(_set_frisk)
	ldx     #>(_set_frisk)
	jsr     _banked_call
;
; famistudio_music_play(3);
;
	lda     #$03
	jsr     _famistudio_music_play
;
; banked_call(2, set_bk_tileset);
;
	lda     #$02
	jsr     pusha
	lda     #<(_set_bk_tileset)
	ldx     #>(_set_bk_tileset)
	jsr     _banked_call
;
; oam_clear();
;
L0002:	jsr     _oam_clear
;
; get_pad_all();
;
	jsr     _get_pad_all
;
; banked_call(1, update_frisk);
;
	lda     #$01
	jsr     pusha
	lda     #<(_update_frisk)
	ldx     #>(_update_frisk)
	jsr     _banked_call
;
; ppu_wait_nmi();
;
	jsr     _ppu_wait_nmi
;
; ppu_wait_nmi();
;
	jsr     _ppu_wait_nmi
;
; while(TRUE){
;
	jmp     L0002

.endproc

